(dp1
F17
(dp2
I426001
(F421630000000
F1
F0.0034956000000000002
tp3
sI426002
(F48024000000
F1
F0.00041070000000000001
tp4
sI426003
(F1908400000
F1
F0.00014987999999999999
tp5
sI426004
(F173620000
F1
F1.8654000000000001e-05
tp6
sI426005
(F5259400
F1
F1.1846e-05
tp7
sI426006
(F276120
F1
F8.3644999999999993e-06
tp8
sI426007
(F26410
F1
F6.6710000000000002e-06
tp9
sI426008
(F77.298000000000002
F1
F8.3211e-05
tp10
sI426009
(F2.7469999999999999
F1
F9.0501000000000006e-05
tp11
sI344250
(F1
F1
F1
tp12
sI344251
(F1
F1
F1
tp13
sI344252
(F1
F1
F1
tp14
sI344253
(F1
F1
F1
tp15
sI344254
(F1
F1
F1
tp16
sI344287
(F1
F1
F1
tp17
sI344288
(F1
F1
F1
tp18
sI344289
(F1
F1
F1
tp19
sI344290
(F1
F1
F1
tp20
sI344291
(F1
F1
F1
tp21
sI344292
(F1
F1
F1
tp22
sI344293
(F1
F1
F1
tp23
sI344294
(F1
F1
F1
tp24
sI303437
(F13.842000000000001
F1
F1
tp25
sI303438
(F2.3351999999999999
F1
F1
tp26
sI303439
(F0.86526000000000003
F1
F1
tp27
sI303440
(F0.15594
F1
F1
tp28
sI303441
(F0.029642999999999999
F1
F1
tp29
sI303442
(F0.0083148000000000007
F1
F1
tp30
sI303443
(F0.0033072000000000002
F1
F1
tp31
sI303444
(F0.0010954999999999999
F1
F1
tp32
sI303445
(F0.00041816999999999999
F1
F1
tp33
sI303446
(F0.0001761
F1
F1
tp34
sI303447
(F7.9838000000000004e-05
F1
F1
tp35
sI303448
(F3.8223000000000003e-05
F1
F1
tp36
sI303449
(F1.9088000000000001e-05
F1
F1
tp37
sI303450
(F9.8672999999999995e-06
F1
F1
tp38
sI303451
(F8.0521000000000004e-06
F1
F1
tp39
sI303452
(F2.4178e-06
F1
F1
tp40
sI303453
(F7.5695999999999997e-07
F1
F1
tp41
sI303454
(F2.4277e-07
F1
F1
tp42
sI303455
(F1.1661999999999999e-07
F1
F1
tp43
sI344422
(F0.89063000000000003
F0.91000000000000003
F0.063309000000000004
tp44
sI344423
(F0.89048000000000005
F0.91000000000000003
F0.93596000000000001
tp45
sI344424
(F0.46255000000000002
F0.91000000000000003
F0.050320999999999998
tp46
sI344425
(F0.46260000000000001
F0.91000000000000003
F0.94891999999999999
tp47
sI344426
(F0.91815000000000002
F0.91000000000000003
F0.050363999999999999
tp48
sI344427
(F0.91790000000000005
F0.91000000000000003
F0.94859000000000004
tp49
sI344428
(F0.67498999999999998
F0.91000000000000003
F0.052574999999999997
tp50
sI344429
(F0.67484999999999995
F0.91000000000000003
F0.94594999999999996
tp51
sI344430
(F1.3845000000000001
F0.91000000000000003
F0.052391
tp52
sI344431
(F1.3880999999999999
F0.91000000000000003
F0.94611000000000001
tp53
sI410000
(F696.11000000000001
F1.1949000000000001
F0.54300000000000004
tp54
sI410001
(F696.11000000000001
F1.1949000000000001
F0.54300000000000004
tp55
sI410002
(F696.11000000000001
F1.1949000000000001
F0.54300000000000004
tp56
sI410003
(F696.11000000000001
F1.1949000000000001
F0.54300000000000004
tp57
sI410004
(F696.11000000000001
F1.1949000000000001
F0.54300000000000004
tp58
sI410006
(F696.35000000000002
F1.1926000000000001
F0.54300000000000004
tp59
sI410007
(F695.99000000000001
F1.1951000000000001
F0.45619999999999999
tp60
sI410008
(F694.44000000000005
F1.1977
F0.45700000000000002
tp61
sI410009
(F696.12
F1.1949000000000001
F0.1053
tp62
sI410011
(F43.738999999999997
F1.0094000000000001
F1
tp63
sI410012
(F25.777999999999999
F1.0193000000000001
F1
tp64
sI410013
(F34.009
F1.054
F1
tp65
sI410014
(F33.988999999999997
F1.054
F1
tp66
sI410015
(F3.5834999999999999
F1.054
F1
tp67
sI410016
(F3.5813999999999999
F1.054
F1
tp68
sI410017
(F40.343000000000004
F1.0944199999999999
F1
tp69
sI410018
(F44.380000000000003
F0.99485999999999997
F1
tp70
sI410019
(F23.751000000000001
F1.1063099999999999
F1
tp71
sI410020
(F26.387
F0.99578999999999995
F1
tp72
sI410021
(F78.730000000000004
F1.1699999999999999
F1
tp73
sI410022
(F157.34999999999999
F1.1699999999999999
F1
tp74
sI410023
(F157.34999999999999
F1.1699999999999999
F1
tp75
sI410024
(F316
F1.1699999999999999
F1
tp76
sI410025
(F2.0516999999999999
F1.0045999999999999
F1
tp77
sI410026
(F1.2615000000000001
F1.0215000000000001
F1
tp78
sI410047
(F43.613999999999997
F1.0122
F1
tp79
sI410048
(F25.744
F1.0206
F1
tp80
sI410050
(F0.24013000000000001
F1
F1
tp81
sI410062
(F32.384
F1.054
F1
tp82
sI410063
(F32.356999999999999
F1.054
F1
tp83
sI410064
(F3.4133
F1.054
F1
tp84
sI410065
(F3.4089999999999998
F1.054
F1
tp85
sI410066
(F0.17655999999999999
F1.3200000000000001
F1
tp86
sI410067
(F0.14061999999999999
F1.3200000000000001
F1
tp87
sI410068
(F0.1368
F1.3200000000000001
F1
tp88
sI410069
(F0.018103000000000001
F1.3500000000000001
F1
tp89
sI410070
(F0.030629
F1.3500000000000001
F1
tp90
sI410073
(F0.17321
F1.47
F1
tp91
sI410074
(F0.16533
F1.47
F1
tp92
sI410075
(F0.17427000000000001
F1.47
F1
tp93
sI410080
(F0.0091622000000000006
F1.0042
F1
tp94
sI410081
(F0.0080975000000000005
F1.2231000000000001
F1
tp95
sI410082
(F2.9820000000000002
F1.47
F1
tp96
sI410083
(F2.9820000000000002
F1.47
F0.28408
tp97
sI410084
(F2.9820000000000002
F1.47
F0.11265
tp98
sI410087
(F2.2290000000000001
F1.47
F1
tp99
sI410088
(F2.2290000000000001
F1.47
F0.30381000000000002
tp100
sI410089
(F2.2290000000000001
F1.47
F0.12457
tp101
sI410099
(F34.917000000000002
F1.0269999999999999
F1
tp102
sI410100
(F33.406999999999996
F1.073
F1
tp103
sI410101
(F34.893000000000001
F1.0269999999999999
F1
tp104
sI410102
(F33.387999999999998
F1.073
F1
tp105
sI410103
(F3.6789999999999998
F1.0269999999999999
F1
tp106
sI410104
(F3.5200999999999998
F1.073
F1
tp107
sI410105
(F3.6766999999999999
F1.0269999999999999
F1
tp108
sI410106
(F3.5181
F1.073
F1
tp109
sI410107
(F2.0516999999999999
F1.0045999999999999
F1
tp110
sI410108
(F2.0516999999999999
F1.0045999999999999
F1
tp111
sI410109
(F1.2615000000000001
F1.0215000000000001
F1
tp112
sI410110
(F1.2615000000000001
F1.0215000000000001
F1
tp113
sI410111
(F0.0096235000000000001
F1.51
F1
tp114
sI410112
(F0.017343999999999998
F1.51
F1
tp115
sI410113
(F0.0096462000000000006
F1.51
F1
tp116
sI410114
(F0.017361000000000001
F1.51
F1
tp117
sI410115
(F0.0098873999999999993
F1.51
F1
tp118
sI410116
(F0.01779
F1.51
F1
tp119
sI410120
(F696.23000000000002
F1.19466268331
F0.034624000000000002
tp120
sI341423
(F0.0013347700000000001
F0.98785275543100004
F1
tp121
sI410141
(F68.768000000000001
F1
F1
tp122
sI410142
(F0.11309
F1.0900000000000001
F1
tp123
sI410143
(F0.68810000000000004
F1.1000000000000001
F1
tp124
sI410144
(F0.57728999999999997
F1.1200000000000001
F1
tp125
sI410145
(F4
F0.94430000000000003
F1
tp126
sI410146
(F4
F0.94369999999999998
F1
tp127
sI410147
(F34
F1.054
F1
tp128
sI410148
(F34
F1.054
F1
tp129
sI361000
(F78420000000
F1
F0.97563
tp130
sI361001
(F78420000000
F1
F0.024819000000000001
tp131
sI361002
(F2433400000
F1
F0.01004
tp132
sI361003
(F26454000
F1
F0.011797999999999999
tp133
sI361004
(F254640
F1
F0.013440000000000001
tp134
sI361005
(F4553.6000000000004
F1
F0.014577
tp135
sI361006
(F257.51999999999998
F1
F0.010018000000000001
tp136
sI361007
(F16.213999999999999
F1
F0.01112
tp137
sI361008
(F0.62504999999999999
F1
F0.010331
tp138
sI361009
(F0.019640000000000001
F1
F0.012109999999999999
tp139
sI361010
(F0.0011961000000000001
F1
F0.0058920999999999999
tp140
sI361011
(F4.2259999999999999e-05
F1
F0.0026752999999999998
tp141
sI410164
(F7.8714000000000004
F0.94369999999999998
F1
tp142
sI410165
(F73.587999999999994
F1
F1
tp143
sI361020
(F78420000000
F1
F0.98131999999999997
tp144
sI361021
(F78420000000
F1
F0.00067197999999999997
tp145
sI361022
(F2433200000
F1
F0.00033263999999999999
tp146
sI410175
(F512.13999999999999
F1.6238999999999999
F0.0084092999999999998
tp147
sI410176
(F512.13999999999999
F1.6238999999999999
F0.26057999999999998
tp148
sI361025
(F4553.5
F1
F0.00092325000000000003
tp149
sI410178
(F9.6915999999999993
F1
F0.042599999999999999
tp150
sI410179
(F9.6942000000000004
F1
F0.28638000000000002
tp151
sI361028
(F0.62502000000000002
F1
F0.010161999999999999
tp152
sI410181
(F506.44
F1
F0.0066519999999999999
tp153
sI410182
(F506.64999999999998
F1
F0.25347999999999998
tp154
sI361031
(F4.2258000000000001e-05
F1
F0.0027014999999999999
tp155
sI361032
(F1.0367e-06
F1
F0.00042502000000000002
tp156
sI410187
(F158.94
F1.1484000000000001
F1
tp157
sI410188
(F158.81999999999999
F1.1484000000000001
F1
tp158
sI410189
(F76.332999999999998
F1.1484000000000001
F1
tp159
sI361039
(F34988
F1
F0.41027999999999998
tp160
sI361040
(F34986
F1
F0.48609999999999998
tp161
sI361041
(F35002
F1
F0.10752
tp162
sI361042
(F3129
F1
F0.39960000000000001
tp163
sI361043
(F3132.9000000000001
F1
F0.48200999999999999
tp164
sI361044
(F3135.1999999999998
F1
F0.11728
tp165
sI361045
(F247.41
F1
F0.41049000000000002
tp166
sI361046
(F247.38999999999999
F1
F0.50283999999999995
tp167
sI361047
(F249.37
F1
F0.12873999999999999
tp168
sI361048
(F13.648
F1
F0.41833999999999999
tp169
sI361049
(F13.617000000000001
F1
F0.47349000000000002
tp170
sI361050
(F13.874000000000001
F1
F0.14065
tp171
sI361051
(F0.92334000000000005
F1
F0.37922
tp172
sI361052
(F0.92184999999999995
F1
F0.47149000000000002
tp173
sI361053
(F0.93818999999999997
F1
F0.14810999999999999
tp174
sI361054
(F0.018432
F1
F0.37058000000000002
tp175
sI361055
(F0.018388000000000002
F1
F0.46648000000000001
tp176
sI361056
(F0.019046
F1
F0.1575
tp177
sI361057
(F7.9163000000000001e-05
F1
F0.36729000000000001
tp178
sI361058
(F8.0514999999999997e-05
F1
F0.46642
tp179
sI361059
(F8.2152999999999998e-05
F1
F0.16919999999999999
tp180
sI361060
(F2.4843000000000002e-09
F1
F0.40350999999999998
tp181
sI361061
(F2.5134e-09
F1
F0.41611999999999999
tp182
sI361062
(F2.5431e-09
F1
F0.14831
tp183
sI361063
(F12.849
F0.91000000000000003
F1
tp184
sI361064
(F1.8446
F0.91000000000000003
F1
tp185
sI361065
(F3.6234999999999999
F0.91000000000000003
F1
tp186
sI361066
(F2.5655999999999999
F0.91000000000000003
F1
tp187
sI361067
(F5.0168999999999997
F0.91000000000000003
F1
tp188
sI361068
(F14.022
F0.91000000000000003
F1
tp189
sI361069
(F0.025765
F0.91000000000000003
F1
tp190
sI361070
(F0.043004000000000001
F0.87
F1
tp191
sI361071
(F0.042286999999999998
F0.87
F1
tp192
sI361072
(F0.031496000000000003
F0.87
F1
tp193
sI410225
(F711.36000000000001
F1.16925326136
F0.54715000000000003
tp194
sI361074
(F0.016160999999999998
F0.91000000000000003
F1
tp195
sI361075
(F0.011826
F0.91000000000000003
F1
tp196
sI361076
(F0.0062719999999999998
F0.91000000000000003
F1
tp197
sI361077
(F0.85492000000000001
F0.91000000000000003
F1
tp198
sI361078
(F0.37630000000000002
F0.91000000000000003
F1
tp199
sI361079
(F0.53739000000000003
F0.91000000000000003
F1
tp200
sI410232
(F696.33000000000004
F1.1944999999999999
F0.54388000000000003
tp201
sI410233
(F694.00999999999999
F1.1984999999999999
F0.54376999999999998
tp202
sI361088
(F3.4001000000000001
F0.91000000000000003
F1
tp203
sI361089
(F0.65966999999999998
F0.91000000000000003
F1
tp204
sI361091
(F24.885000000000002
F0.91000000000000003
F1
tp205
sI361092
(F24.856999999999999
F0.91000000000000003
F1
tp206
sI361093
(F11.494
F0.91000000000000003
F1
tp207
sI361094
(F3.4234
F0.91000000000000003
F1
tp208
sI361095
(F6.7770000000000001
F0.91000000000000003
F1
tp209
sI361096
(F16.445
F0.91000000000000003
F0.14307
tp210
sI410249
(F330.19
F1.1484000000000001
F1
tp211
sI410250
(F158.94
F1.1484000000000001
F1
tp212
sI410251
(F158.81999999999999
F1.1484000000000001
F1
tp213
sI410252
(F76.332999999999998
F1.1484000000000001
F1
tp214
sI361101
(F11306
F1.0172399999999999
F1
tp215
sI361102
(F11306
F1.0172399999999999
F1
tp216
sI361103
(F8282.6000000000004
F1.0357860000000001
F1
tp217
sI361104
(F8282.6000000000004
F1.0357860000000001
F1
tp218
sI361105
(F8282.6000000000004
F1.0357860000000001
F1
tp219
sI361106
(F1901.2
F1.026
F1
tp220
sI361107
(F1901.2
F1.026
F1
tp221
sI361108
(F1901.2
F1.026
F1
tp222
sI187167
(F1.1679999999999999
F1
F0.18525
tp223
sI361250
(F187710
F1
F1
tp224
sI361251
(F58528
F1
F1
tp225
sI361300
(F21283
F0.90824000000000005
F0.89072399999999996
tp226
sI361301
(F21381
F0.90824000000000005
F0.04929
tp227
sI361302
(F21385
F0.90824000000000005
F0.059785999999999999
tp228
sI361303
(F633.66999999999996
F0.90824000000000005
F0.72882899999999995
tp229
sI361304
(F632.28999999999996
F0.90824000000000005
F0.176811
tp230
sI361305
(F631.59000000000003
F0.90824000000000005
F0.096681000000000003
tp231
sI361306
(F90.162999999999997
F0.90824000000000005
F0.68155399999999999
tp232
sI361307
(F90.039000000000001
F0.90824000000000005
F0.20590700000000001
tp233
sI361308
(F90.129000000000005
F0.90824000000000005
F0.11228399999999999
tp234
sI361309
(F5.7610000000000001
F0.99912999999999996
F0.65272399999999997
tp235
sI361310
(F5.7609000000000004
F0.99912999999999996
F0.221526
tp236
sI361311
(F5.7138999999999998
F0.99912999999999996
F0.130994
tp237
sI361312
(F0.35581000000000002
F0.99912999999999996
F0.631749
tp238
sI361313
(F0.34384999999999999
F0.99912999999999996
F0.243561
tp239
sI361314
(F0.34645999999999999
F0.99912999999999996
F0.15522900000000001
tp240
sI361315
(F0.060538000000000002
F0.99912999999999996
F0.60962000000000005
tp241
sI361316
(F0.060838000000000003
F0.99912999999999996
F0.20280100000000001
tp242
sI361317
(F0.062642000000000003
F0.99912999999999996
F0.16870099999999999
tp243
sI361318
(F0.0079206999999999993
F0.99912999999999996
F0.62924500000000005
tp244
sI361319
(F0.0081197999999999999
F0.99912999999999996
F0.23799100000000001
tp245
sI361320
(F0.0080035999999999996
F0.99912999999999996
F0.173096
tp246
sI361321
(F3.0800000000000003e-05
F0.99912999999999996
F0.63844100000000004
tp247
sI361322
(F3.1099999999999997e-05
F0.99912999999999996
F0.272781
tp248
sI361323
(F3.1199999999999999e-05
F0.99912999999999996
F0.165186
tp249
sI361324
(F21392
F0.9083
F0.89251000000000003
tp250
sI361325
(F21380
F0.9083
F0.047370000000000002
tp251
sI361326
(F21371
F0.9083
F0.059709999999999999
tp252
sI361327
(F634.10000000000002
F0.9083
F0.72841800000000001
tp253
sI361328
(F632.53999999999996
F0.9083
F0.17504700000000001
tp254
sI361329
(F632.78999999999996
F0.9083
F0.096686999999999995
tp255
sI361330
(F89.867999999999995
F0.9083
F0.68415000000000004
tp256
sI361331
(F90.076999999999998
F0.9083
F0.203512
tp257
sI361332
(F90.203999999999994
F0.9083
F0.112541
tp258
sI361333
(F5.7812000000000001
F0.99912999999999996
F0.65363099999999996
tp259
sI361334
(F5.7436999999999996
F0.99912999999999996
F0.22252
tp260
sI361335
(F5.7291999999999996
F0.99912999999999996
F0.13070899999999999
tp261
sI361336
(F0.35302
F0.99912999999999996
F0.63110900000000003
tp262
sI361337
(F0.34560000000000002
F0.99912999999999996
F0.23984
tp263
sI361338
(F0.34814000000000001
F0.99912999999999996
F0.16352900000000001
tp264
sI361339
(F0.061501
F0.99912999999999996
F0.632602
tp265
sI361340
(F0.061643000000000003
F0.99912999999999996
F0.22769900000000001
tp266
sI361341
(F0.060150000000000002
F0.99912999999999996
F0.16014
tp267
sI361342
(F0.0079015999999999999
F0.99912999999999996
F0.59789000000000003
tp268
sI361343
(F0.0079127999999999993
F0.99912999999999996
F0.236425
tp269
sI361344
(F0.0078578999999999993
F0.99912999999999996
F0.15962299999999999
tp270
sI361345
(F3.0899999999999999e-05
F0.99912999999999996
F0.61792800000000003
tp271
sI361346
(F3.18e-05
F0.99912999999999996
F0.26791700000000002
tp272
sI361347
(F3.4600000000000001e-05
F0.99912999999999996
F0.192802
tp273
sI361348
(F21386
F0.9083
F0.89141099999999995
tp274
sI361349
(F21378
F0.9083
F0.048705999999999999
tp275
sI361350
(F21386
F0.9083
F0.059683
tp276
sI361351
(F635.55999999999995
F0.9083
F0.72607900000000003
tp277
sI361352
(F634.00999999999999
F0.9083
F0.17627300000000001
tp278
sI361353
(F633
F0.9083
F0.095732999999999999
tp279
sI361354
(F90.013000000000005
F0.9083
F0.68396400000000002
tp280
sI361355
(F90.209000000000003
F0.9083
F0.204983
tp281
sI361356
(F90.168999999999997
F0.9083
F0.11307
tp282
sI361357
(F5.7930999999999999
F0.99912999999999996
F0.64744100000000004
tp283
sI361358
(F5.7831000000000001
F0.99912999999999996
F0.21887499999999999
tp284
sI304015
(F26.652999999999999
F1
F1
tp285
sI304016
(F26.640000000000001
F1
F1
tp286
sI304017
(F26.582999999999998
F1
F1
tp287
sI304018
(F13.590999999999999
F1
F1
tp288
sI304019
(F2.5455000000000001
F1
F1
tp289
sI304020
(F2.5381999999999998
F1
F1
tp290
sI304021
(F2.5413000000000001
F1
F1
tp291
sI361366
(F0.0079323999999999992
F0.99912999999999996
F0.60711000000000004
tp292
sI361367
(F0.0078887999999999996
F0.99912999999999996
F0.23799899999999999
tp293
sI361368
(F0.0080228000000000001
F0.99912999999999996
F0.17597599999999999
tp294
sI361369
(F3.3399999999999999e-05
F0.99912999999999996
F0.54539899999999997
tp295
sI361370
(F3.0499999999999999e-05
F0.99912999999999996
F0.24227199999999999
tp296
sI361371
(F3.1999999999999999e-05
F0.99912999999999996
F0.19603100000000001
tp297
sI361372
(F2205
F0.9012
F0.77849999999999997
tp298
sI361373
(F2205
F0.9012
F0.14219999999999999
tp299
sI361374
(F2205
F0.9012
F0.079500000000000001
tp300
sI361375
(F76.030000000000001
F0.9012
F0.64800000000000002
tp301
sI361376
(F76.030000000000001
F0.9012
F0.2198
tp302
sI361377
(F76.030000000000001
F0.9012
F0.13089999999999999
tp303
sI361378
(F11.640000000000001
F0.9012
F0.6139
tp304
sI361379
(F11.640000000000001
F0.9012
F0.24260000000000001
tp305
sI361380
(F11.640000000000001
F0.9012
F0.14680000000000001
tp306
sI361381
(F0.76459999999999995
F0.99131999999999998
F0.58360000000000001
tp307
sI361382
(F0.76459999999999995
F0.99131999999999998
F0.26319999999999999
tp308
sI361383
(F0.76459999999999995
F0.99131999999999998
F0.15939999999999999
tp309
sI361384
(F0.046280000000000002
F0.99131999999999998
F0.56920000000000004
tp310
sI361385
(F0.046280000000000002
F0.99131999999999998
F0.26919999999999999
tp311
sI361386
(F0.046280000000000002
F0.99131999999999998
F0.17180000000000001
tp312
sI361387
(F0.0080789999999999994
F0.99131999999999998
F0.5625
tp313
sI361388
(F0.0080789999999999994
F0.99131999999999998
F0.29580000000000001
tp314
sI361389
(F0.0080789999999999994
F0.99131999999999998
F0.18060000000000001
tp315
sI361390
(F0.001062
F0.99131999999999998
F0.54990000000000006
tp316
sI361391
(F0.001062
F0.99131999999999998
F0.3135
tp317
sI361392
(F0.001062
F0.99131999999999998
F0.18609999999999999
tp318
sI361393
(F4.2339999999999996e-06
F0.99131999999999998
F0.4874
tp319
sI361394
(F4.2339999999999996e-06
F0.99131999999999998
F0.30780000000000002
tp320
sI361395
(F4.2339999999999996e-06
F0.99131999999999998
F0.20480000000000001
tp321
sI361396
(F2205
F0.9012
F0.77849999999999997
tp322
sI361397
(F2205
F0.9012
F0.14219999999999999
tp323
sI361398
(F2205
F0.9012
F0.079500000000000001
tp324
sI361399
(F76.030000000000001
F0.9012
F0.64800000000000002
tp325
sI361400
(F76.030000000000001
F0.9012
F0.2198
tp326
sI361401
(F76.030000000000001
F0.9012
F0.13089999999999999
tp327
sI361402
(F11.640000000000001
F0.9012
F0.6139
tp328
sI361403
(F11.640000000000001
F0.9012
F0.24260000000000001
tp329
sI361404
(F11.640000000000001
F0.9012
F0.14680000000000001
tp330
sI361405
(F0.76898999999999995
F0.99131999999999998
F0.58360000000000001
tp331
sI361406
(F0.75651999999999997
F0.99131999999999998
F0.27210299999999998
tp332
sI361407
(F0.77159999999999995
F0.99131999999999998
F0.163024
tp333
sI410560
(F0.24037
F1
F1
tp334
sI361409
(F0.046280000000000002
F0.99131999999999998
F0.265874
tp335
sI361410
(F0.046280000000000002
F0.99131999999999998
F0.17643900000000001
tp336
sI361411
(F0.0080385999999999999
F0.99131999999999998
F0.56130500000000005
tp337
sI361412
(F0.0078922000000000003
F0.99131999999999998
F0.28872999999999999
tp338
sI361413
(F0.0080570999999999993
F0.99131999999999998
F0.17863100000000001
tp339
sI361414
(F0.0011444000000000001
F0.99131999999999998
F0.54913199999999995
tp340
sI361415
(F0.0010425
F0.99131999999999998
F0.28250799999999998
tp341
sI361416
(F0.0010660999999999999
F0.99131999999999998
F0.19800899999999999
tp342
sI361417
(F4.1099999999999996e-06
F0.99131999999999998
F0.59726100000000004
tp343
sI361418
(F4.1099999999999996e-06
F0.99131999999999998
F0.32578400000000002
tp344
sI361419
(F4.2200000000000003e-06
F0.99131999999999998
F0.24664900000000001
tp345
sI361420
(F2205
F0.9012
F0.77849999999999997
tp346
sI361421
(F2205
F0.9012
F0.14219999999999999
tp347
sI361422
(F2205
F0.9012
F0.079500000000000001
tp348
sI361423
(F76.030000000000001
F0.9012
F0.64800000000000002
tp349
sI361424
(F76.030000000000001
F0.9012
F0.22200300000000001
tp350
sI361425
(F76.030000000000001
F0.9012
F0.13089999999999999
tp351
sI361426
(F11.640000000000001
F0.9012
F0.6139
tp352
sI361427
(F11.640000000000001
F0.9012
F0.24260000000000001
tp353
sI361428
(F11.640000000000001
F0.9012
F0.14208000000000001
tp354
sI361429
(F0.76459999999999995
F0.99131999999999998
F0.58360000000000001
tp355
sI361430
(F0.76459999999999995
F0.99131999999999998
F0.25577499999999997
tp356
sI361431
(F0.76459999999999995
F0.99131999999999998
F0.15939999999999999
tp357
sI361432
(F0.046280000000000002
F0.99131999999999998
F0.56920000000000004
tp358
sI361433
(F0.046280000000000002
F0.99131999999999998
F0.26919999999999999
tp359
sI361434
(F0.046280000000000002
F0.99131999999999998
F0.17180000000000001
tp360
sI361435
(F0.0080789999999999994
F0.99131999999999998
F0.5625
tp361
sI361436
(F0.0080789999999999994
F0.99131999999999998
F0.29580000000000001
tp362
sI361437
(F0.0080789999999999994
F0.99131999999999998
F0.18060000000000001
tp363
sI361438
(F0.0010476999999999999
F0.99131999999999998
F0.56361000000000006
tp364
sI361439
(F0.0010499999999999999
F0.99131999999999998
F0.348277
tp365
sI361440
(F0.0010644999999999999
F0.99131999999999998
F0.168462
tp366
sI361441
(F4.07e-06
F0.99131999999999998
F0.59540599999999999
tp367
sI361442
(F4.3599999999999998e-06
F0.99131999999999998
F0.35995300000000002
tp368
sI361443
(F4.3599999999999998e-06
F0.99131999999999998
F0.25084600000000001
tp369
sI361444
(F11940
F0.93759999999999999
F0.77849999999999997
tp370
sI361445
(F11940
F0.93759999999999999
F0.1401
tp371
sI361446
(F11940
F0.93759999999999999
F0.080000000000000002
tp372
sI361447
(F427.89999999999998
F0.93759999999999999
F0.64959999999999996
tp373
sI361448
(F427.89999999999998
F0.93759999999999999
F0.21840000000000001
tp374
sI361449
(F427.89999999999998
F0.93759999999999999
F0.1328
tp375
sI361450
(F65.709999999999994
F0.93759999999999999
F0.61380000000000001
tp376
sI361451
(F65.709999999999994
F0.93759999999999999
F0.23899999999999999
tp377
sI361452
(F65.709999999999994
F0.93759999999999999
F0.1477
tp378
sI361453
(F4.2610000000000001
F1.0313600000000001
F0.5857
tp379
sI361454
(F4.2610000000000001
F1.0313600000000001
F0.2606
tp380
sI361455
(F4.2610000000000001
F1.0313600000000001
F0.16170000000000001
tp381
sI361456
(F0.25409999999999999
F1.0313600000000001
F0.55500000000000005
tp382
sI361457
(F0.25409999999999999
F1.0313600000000001
F0.27489999999999998
tp383
sI361458
(F0.25409999999999999
F1.0313600000000001
F0.16489999999999999
tp384
sI361459
(F0.044490000000000002
F1.0313600000000001
F0.55769999999999997
tp385
sI361460
(F0.044490000000000002
F1.0313600000000001
F0.3039
tp386
sI361461
(F0.044490000000000002
F1.0313600000000001
F0.16309999999999999
tp387
sI361462
(F0.0056779999999999999
F1.0313600000000001
F0.53469999999999995
tp388
sI361463
(F0.0056779999999999999
F1.0313600000000001
F0.31219999999999998
tp389
sI361464
(F0.0056779999999999999
F1.0313600000000001
F0.19719999999999999
tp390
sI361465
(F2.3349999999999998e-05
F1.0313600000000001
F0.54359999999999997
tp391
sI361466
(F2.3349999999999998e-05
F1.0313600000000001
F0.34560000000000002
tp392
sI361467
(F2.3349999999999998e-05
F1.0313600000000001
F0.2157
tp393
sI361468
(F2256.0999999999999
F0.90129999999999999
F0.95157000000000003
tp394
sI361469
(F2252.9000000000001
F0.90129999999999999
F0.047153
tp395
sI361470
(F7.7820999999999998
F0.90129999999999999
F0.89434999999999998
tp396
sI361471
(F7.8014999999999999
F0.90129999999999999
F0.099233000000000002
tp397
sI361472
(F0.71013999999999999
F0.90129999999999999
F0.86946999999999997
tp398
sI361473
(F0.70669999999999999
F0.90129999999999999
F0.10501000000000001
tp399
sI361474
(F0.0073149
F0.90129999999999999
F0.82796999999999998
tp400
sI361475
(F0.0074546999999999999
F0.90129999999999999
F0.20094999999999999
tp401
sI361476
(F2251.0999999999999
F0.90129999999999999
F0.95123999999999997
tp402
sI361477
(F2250
F0.90129999999999999
F0.047277
tp403
sI361478
(F7.7866999999999997
F0.90129999999999999
F0.89102000000000003
tp404
sI361479
(F7.7839999999999998
F0.90129999999999999
F0.10194
tp405
sI361480
(F0.71423999999999999
F0.90129999999999999
F0.87021999999999999
tp406
sI361481
(F0.70704
F0.90129999999999999
F0.11674
tp407
sI361482
(F0.00745
F0.90129999999999999
F0.84321000000000002
tp408
sI361483
(F0.0075031999999999998
F0.90129999999999999
F0.20116999999999999
tp409
sI361484
(F2268.5999999999999
F0.90129999999999999
F0.95169000000000004
tp410
sI361485
(F2254.1999999999998
F0.90129999999999999
F0.046987000000000001
tp411
sI361486
(F7.7698999999999998
F0.90129999999999999
F0.8921
tp412
sI361487
(F7.8242000000000003
F0.90129999999999999
F0.10367
tp413
sI361488
(F0.70972000000000002
F0.90129999999999999
F0.87012999999999996
tp414
sI361489
(F0.70682
F0.90129999999999999
F0.11787
tp415
sI361490
(F0.0074352999999999997
F0.90129999999999999
F0.84347000000000005
tp416
sI361491
(F0.0074346000000000004
F0.90129999999999999
F0.19323000000000001
tp417
sI427030
(F78420000000
F1
F2.0251999999999999e-05
tp418
sI427031
(F31533000000
F1
F4.3368000000000002e-05
tp419
sI427032
(F2433200000
F1
F0.00019474999999999999
tp420
sI427033
(F26455000
F1
F0.00046617000000000002
tp421
sI427034
(F254630
F1
F0.00081289000000000003
tp422
sI361500
(F1401.5999999999999
F1.232
F1
tp423
sI361501
(F211.99000000000001
F1.232
F1
tp424
sI361502
(F67.305000000000007
F1.232
F1
tp425
sI361503
(F18.678999999999998
F1.232
F1
tp426
sI361504
(F7.2910000000000004
F1.232
F1
tp427
sI361505
(F1402
F1.232
F1
tp428
sI361506
(F211.94999999999999
F1.232
F1
tp429
sI361507
(F67.352999999999994
F1.232
F1
tp430
sI361508
(F18.632999999999999
F1.232
F1
tp431
sI361509
(F7.3013000000000003
F1.232
F1
tp432
sI361510
(F1397.8
F1.232
F1
tp433
sI361511
(F211.40000000000001
F1.232
F1
tp434
sI361512
(F67.176000000000002
F1.232
F1
tp435
sI361513
(F18.609000000000002
F1.232
F1
tp436
sI361514
(F7.2748999999999997
F1.232
F1
tp437
sI361515
(F7518.3999999999996
F1.232
F1
tp438
sI361516
(F1200.0999999999999
F1.232
F1
tp439
sI361517
(F387.16000000000003
F1.232
F1
tp440
sI361518
(F110.08
F1.232
F1
tp441
sI361519
(F43.389000000000003
F1.232
F1
tp442
sI361520
(F13939
F1.2018500000000001
F1
tp443
sI361521
(F1894
F1.2018500000000001
F1
tp444
sI361522
(F642.65999999999997
F1.2018500000000001
F1
tp445
sI361523
(F179.18000000000001
F1.2018500000000001
F1
tp446
sI361524
(F70.784999999999997
F1.2018500000000001
F1
tp447
sI361525
(F13935
F1.2018500000000001
F1
tp448
sI361526
(F1893.3
F1.2018500000000001
F1
tp449
sI361527
(F642.70000000000005
F1.2018500000000001
F1
tp450
sI361528
(F179.19
F1.2018500000000001
F1
tp451
sI361529
(F70.760999999999996
F1.2018500000000001
F1
tp452
sI361530
(F13920
F1.2018500000000001
F1
tp453
sI361531
(F1891.9000000000001
F1.2018500000000001
F1
tp454
sI361532
(F641.87
F1.2018500000000001
F1
tp455
sI361533
(F179.21000000000001
F1.2018500000000001
F1
tp456
sI361534
(F71.012
F1.2018500000000001
F1
tp457
sI341518
(F0.000458381
F0.97828356650699999
F1
tp458
sI341524
(F1
F1
F1
tp459
sI341525
(F1
F1
F1
tp460
sI361600
(F10.631
F1
F1
tp461
sI361601
(F4.4625000000000004
F1
F1
tp462
sI361602
(F2.7778
F1
F1
tp463
sI361603
(F1.2567999999999999
F1
F1
tp464
sI361604
(F0.92498000000000002
F1
F1
tp465
sI341526
(F1
F1
F1
tp466
sI361606
(F44.176000000000002
F1
F1
tp467
sI361607
(F3.2848999999999999
F1
F1
tp468
sI361608
(F5.7743000000000002
F1
F1
tp469
sI361609
(F10.099
F1
F1
tp470
sI361610
(F2.2738999999999998
F1
F1
tp471
sI341527
(F1
F1
F1
tp472
sI341528
(F1
F1
F1
tp473
sI361620
(F0.0083429999999999997
F1
F1
tp474
sI361621
(F0.0017340000000000001
F1
F1
tp475
sI361622
(F0.0034299
F1
F1
tp476
sI361623
(F0.00021782999999999999
F1
F1
tp477
sI361624
(F0.0019247999999999999
F1
F0.44444
tp478
sI361625
(F1.7059e-05
F1
F1
tp479
sI361626
(F0.00044125000000000002
F1
F0.22542000000000001
tp480
sI361627
(F0.00044529999999999998
F1
F0.44814999999999999
tp481
sI361628
(F2677.0999999999999
F1.232
F1
tp482
sI361629
(F44.988
F1.232
F1
tp483
sI361630
(F29.292000000000002
F1.232
F1
tp484
sI361631
(F6.117
F1.232
F1
tp485
sI361632
(F2.2090999999999998
F1.232
F1
tp486
sI361633
(F2677.0999999999999
F1.232
F1
tp487
sI361634
(F44.979999999999997
F1.232
F1
tp488
sI361635
(F29.302
F1.232
F1
tp489
sI361636
(F6.1087999999999996
F1.232
F1
tp490
sI361637
(F2.2231000000000001
F1.232
F1
tp491
sI361638
(F2412.4000000000001
F1.232
F1
tp492
sI361639
(F46.018999999999998
F1.232
F1
tp493
sI361640
(F28.852
F1.232
F1
tp494
sI361641
(F6.0513000000000003
F1.232
F1
tp495
sI361642
(F2.2111000000000001
F1.232
F1
tp496
sI361664
(F13960
F1
F0.051393000000000001
tp497
sI361665
(F6621.3999999999996
F1
F0.26630999999999999
tp498
sI361666
(F13960
F1
F0.054459
tp499
sI361667
(F6621.3000000000002
F1
F0.27361000000000002
tp500
sI361668
(F13960
F1
F0.00058900000000000001
tp501
sI361669
(F6621.6000000000004
F1
F0.015115
tp502
sI361700
(F1283.9000000000001
F1.1240000000000001
F1
tp503
sI361701
(F277.24000000000001
F1.1240000000000001
F1
tp504
sI361702
(F75.799000000000007
F1.1240000000000001
F1
tp505
sI361703
(F21.576000000000001
F1.1240000000000001
F1
tp506
sI361704
(F6.1543000000000001
F1.1240000000000001
F1
tp507
sI361705
(F2.4923999999999999
F1.1240000000000001
F1
tp508
sI361710
(F1284.2
F1.1240000000000001
F1
tp509
sI361711
(F277.30000000000001
F1.1240000000000001
F1
tp510
sI361712
(F75.787999999999997
F1.1240000000000001
F1
tp511
sI361713
(F21.562000000000001
F1.1240000000000001
F1
tp512
sI361714
(F6.1623000000000001
F1.1240000000000001
F1
tp513
sI361715
(F2.4668999999999999
F1.1240000000000001
F1
tp514
sI361720
(F1284
F1.1240000000000001
F1
tp515
sI361721
(F277.27999999999997
F1.1240000000000001
F1
tp516
sI361722
(F75.814999999999998
F1.1240000000000001
F1
tp517
sI361723
(F21.530999999999999
F1.1240000000000001
F1
tp518
sI361724
(F6.1590999999999996
F1.1240000000000001
F1
tp519
sI361725
(F2.4558
F1.1240000000000001
F1
tp520
sI361730
(F16.649999999999999
F1.1240000000000001
F1
tp521
sI361731
(F7.6398999999999999
F1.1240000000000001
F1
tp522
sI361732
(F3.0629
F1.1240000000000001
F1
tp523
sI361733
(F1.7879
F1.1240000000000001
F1
tp524
sI361735
(F633.53999999999996
F1.1240000000000001
F1
tp525
sI361736
(F28.672000000000001
F1.1240000000000001
F1
tp526
sI361737
(F8.0836000000000006
F1.1240000000000001
F1
tp527
sI361738
(F4.6768999999999998
F1.1240000000000001
F1
tp528
sI361740
(F16.625
F1.1240000000000001
F1
tp529
sI361741
(F7.6356000000000002
F1.1240000000000001
F1
tp530
sI361742
(F3.0646
F1.1240000000000001
F1
tp531
sI361743
(F1.7986
F1.1240000000000001
F1
tp532
sI361745
(F62.423999999999999
F1.1240000000000001
F1
tp533
sI361746
(F28.675000000000001
F1.1240000000000001
F1
tp534
sI361747
(F8.0972000000000008
F1.1240000000000001
F1
tp535
sI361748
(F4.6782000000000004
F1.1240000000000001
F1
tp536
sI361750
(F16.632999999999999
F1.1240000000000001
F1
tp537
sI361751
(F7.6356000000000002
F1.1240000000000001
F1
tp538
sI361752
(F3.0705
F1.1240000000000001
F1
tp539
sI361753
(F1.7937000000000001
F1.1240000000000001
F1
tp540
sI361755
(F62.451999999999998
F1.1240000000000001
F1
tp541
sI361756
(F28.641999999999999
F1.1240000000000001
F1
tp542
sI361757
(F8.0983999999999998
F1.1240000000000001
F1
tp543
sI361758
(F4.6471
F1.1240000000000001
F1
tp544
sI361800
(F14322
F1.044
F1
tp545
sI361801
(F3042.3000000000002
F1.044
F1
tp546
sI361802
(F858.05999999999995
F1.044
F1
tp547
sI361803
(F252.00999999999999
F1.044
F1
tp548
sI361804
(F77.438999999999993
F1.044
F1
tp549
sI361805
(F33.371000000000002
F1.044
F1
tp550
sI361810
(F14323
F1.044
F1
tp551
sI361811
(F3041.4000000000001
F1.044
F1
tp552
sI361812
(F858.11000000000001
F1.044
F1
tp553
sI361813
(F252.00999999999999
F1.044
F1
tp554
sI361814
(F77.495999999999995
F1.044
F1
tp555
sI361815
(F33.341000000000001
F1.044
F1
tp556
sI361820
(F14322
F1.044
F1
tp557
sI361821
(F3041.8000000000002
F1.044
F1
tp558
sI361822
(F858.13999999999999
F1.044
F1
tp559
sI361823
(F252.16
F1.044
F1
tp560
sI361824
(F77.549000000000007
F1.044
F1
tp561
sI361825
(F33.279000000000003
F1.044
F1
tp562
sI341564
(F17.424199999999999
F1.45440095371
F1
tp563
sI341565
(F17.420200000000001
F1.4547381669999999
F0.19986999999999999
tp564
sI341566
(F2.2097899999999999
F0.97864118230700003
F1
tp565
sI304623
(F23.146000000000001
F1
F1
tp566
sI304624
(F1.4823
F1
F1
tp567
sI304625
(F0.27756999999999998
F1
F1
tp568
sI304626
(F0.035314999999999999
F1
F1
tp569
sI304627
(F0.0038008
F1
F1
tp570
sI304628
(F10.455
F1
F1
tp571
sI304629
(F0.67488000000000004
F1
F1
tp572
sI304630
(F0.12506999999999999
F1
F1
tp573
sI304631
(F0.015796999999999999
F1
F1
tp574
sI304632
(F0.0017049999999999999
F1
F1
tp575
sI362000
(F11966
F0.91400053041444651
F0.77631600395900002
tp576
sI362001
(F11771
F0.92620040393510972
F0.77808248374900002
tp577
sI362002
(F11418
F0.95472746656816909
F0.77802253277
tp578
sI362003
(F12254
F0.90417624003243691
F0.77904343929999997
tp579
sI362004
(F12147
F0.89624574454671535
F0.779439192492
tp580
sI362005
(F11668
F0.93934288121314236
F0.778617239864
tp581
sI362006
(F12162
F0.89425140943080228
F0.78031990647000005
tp582
sI362007
(F11802
F0.9290755808254092
F0.777836843281
tp583
sI362008
(F11966
F0.91400053041444651
F0.14167378996999999
tp584
sI362009
(F11771
F0.92620040393510972
F0.14058126916899999
tp585
sI362010
(F11418
F0.95472746656816909
F0.14195402800000001
tp586
sI362011
(F12254
F0.90417624003243691
F0.140040650593
tp587
sI362012
(F12147
F0.89624574454671535
F0.140776476673
tp588
sI362013
(F11668
F0.93934288121314236
F0.13954800707699999
tp589
sI362014
(F12162
F0.89425140943080228
F0.139589207444
tp590
sI362015
(F11802
F0.9290755808254092
F0.140689827588
tp591
sI362016
(F11966
F0.91400053041444651
F0.081907960499499999
tp592
sI362017
(F11771
F0.92620040393510972
F0.080496054126200006
tp593
sI362018
(F11418
F0.95472746656816909
F0.0798206442732
tp594
sI362019
(F12254
F0.90417624003243691
F0.0807488908403
tp595
sI362020
(F12147
F0.89624574454671535
F0.079051780959499995
tp596
sI362021
(F11668
F0.93934288121314236
F0.080737966202700004
tp597
sI362022
(F12162
F0.89425140943080228
F0.078823057506700003
tp598
sI362023
(F11802
F0.9290755808254092
F0.081056891282500002
tp599
sI362024
(F410.56
F0.91400053041444651
F0.64826603155999996
tp600
sI362025
(F418.04000000000002
F0.92620040393510972
F0.65921988375399998
tp601
sI362026
(F411.25999999999999
F0.95472746656816909
F0.65428810688100003
tp602
sI362027
(F423.01999999999998
F0.90417624003243691
F0.65174472307999998
tp603
sI362028
(F458.32999999999998
F0.89624574454671535
F0.65304695894800002
tp604
sI362029
(F378.99000000000001
F0.93934288121314236
F0.65589247786799998
tp605
sI362030
(F484.35000000000002
F0.89425140943080228
F0.66329167582100002
tp606
sI362031
(F371.85000000000002
F0.9290755808254092
F0.64843272821200004
tp607
sI362032
(F410.56
F0.91400053041444651
F0.219443248097
tp608
sI362033
(F418.04000000000002
F0.92620040393510972
F0.216756486695
tp609
sI362034
(F411.25999999999999
F0.95472746656816909
F0.218390751174
tp610
sI362035
(F423.01999999999998
F0.90417624003243691
F0.216921747394
tp611
sI362036
(F458.32999999999998
F0.89624574454671535
F0.21927178454999999
tp612
sI362037
(F378.99000000000001
F0.93934288121314236
F0.21659155583600001
tp613
sI362038
(F484.35000000000002
F0.89425140943080228
F0.21154404539900001
tp614
sI362039
(F371.85000000000002
F0.9290755808254092
F0.21924107616800001
tp615
sI362040
(F410.56
F0.91400053041444651
F0.133852046339
tp616
sI362041
(F418.04000000000002
F0.92620040393510972
F0.12587438774500001
tp617
sI362042
(F411.25999999999999
F0.95472746656816909
F0.12854696322299999
tp618
sI362043
(F423.01999999999998
F0.90417624003243691
F0.13099884535799999
tp619
sI362044
(F458.32999999999998
F0.89624574454671535
F0.12988560148799999
tp620
sI362045
(F378.99000000000001
F0.93934288121314236
F0.13018451532299999
tp621
sI362046
(F484.35000000000002
F0.89425140943080228
F0.12505463230300001
tp622
sI362047
(F371.85000000000002
F0.9290755808254092
F0.13109177196499999
tp623
sI362048
(F59.866999999999997
F0.91400053041444651
F0.617500253306
tp624
sI362049
(F64.284999999999997
F0.92620040393510972
F0.62115379582399999
tp625
sI362050
(F62.093000000000004
F0.95472746656816909
F0.61930169160199999
tp626
sI362051
(F62.280999999999999
F0.90417624003243691
F0.61662085929999999
tp627
sI362052
(F69.805999999999997
F0.89624574454671535
F0.60996482545200004
tp628
sI362053
(F55.081000000000003
F0.93934288121314236
F0.62442471691400003
tp629
sI362054
(F71.191999999999993
F0.89425140943080228
F0.62639206069999998
tp630
sI362055
(F55.762
F0.9290755808254092
F0.61751166056999995
tp631
sI362056
(F59.866999999999997
F0.91400053041444651
F0.244643364222
tp632
sI362057
(F64.284999999999997
F0.92620040393510972
F0.242388252158
tp633
sI362058
(F62.093000000000004
F0.95472746656816909
F0.23973068341199999
tp634
sI362059
(F62.280999999999999
F0.90417624003243691
F0.23770591538399999
tp635
sI362060
(F69.805999999999997
F0.89624574454671535
F0.24427406956799999
tp636
sI362061
(F55.081000000000003
F0.93934288121314236
F0.2371668626
tp637
sI362062
(F71.191999999999993
F0.89425140943080228
F0.23313300620399999
tp638
sI362063
(F55.762
F0.9290755808254092
F0.240079205845
tp639
sI362064
(F59.866999999999997
F0.91400053041444651
F0.14938065504799999
tp640
sI362065
(F64.284999999999997
F0.92620040393510972
F0.143316507373
tp641
sI362066
(F62.093000000000004
F0.95472746656816909
F0.14587617564899999
tp642
sI362067
(F62.280999999999999
F0.90417624003243691
F0.14567322527900001
tp643
sI362068
(F69.805999999999997
F0.89624574454671535
F0.15603401542500001
tp644
sI362069
(F55.081000000000003
F0.93934288121314236
F0.142540684626
tp645
sI362070
(F71.191999999999993
F0.89425140943080228
F0.1404749331
tp646
sI362071
(F55.762
F0.9290755808254092
F0.14765816448399999
tp647
sI362072
(F4.0857999999999999
F1.0054005834599999
F0.58749178796299995
tp648
sI362073
(F4.5537999999999998
F1.01882044433
F0.59254356886500004
tp649
sI362074
(F4.2209000000000003
F1.0502002132199999
F0.59253652461700002
tp650
sI362075
(F4.3314000000000004
F0.99459386403600003
F0.59206400002899995
tp651
sI362076
(F4.9611000000000001
F0.98587031900099997
F0.57745992244199995
tp652
sI362077
(F3.7250999999999999
F1.03327716933
F0.60096694644500004
tp653
sI362078
(F4.7210999999999999
F0.98367655037400004
F0.59385494245000003
tp654
sI362079
(F3.9493999999999998
F1.02198313891
F0.593295358833
tp655
sI362080
(F4.0857999999999999
F1.0054005834599999
F0.25429741460900002
tp656
sI362081
(F4.5537999999999998
F1.01882044433
F0.255710492515
tp657
sI362082
(F4.2209000000000003
F1.0502002132199999
F0.25469553202900003
tp658
sI362083
(F4.3314000000000004
F0.99459386403600003
F0.25633657288
tp659
sI362084
(F4.9611000000000001
F0.98587031900099997
F0.26341167235700003
tp660
sI362085
(F3.7250999999999999
F1.03327716933
F0.25016112014800002
tp661
sI362086
(F4.7210999999999999
F0.98367655037400004
F0.25385439644699997
tp662
sI362087
(F3.9493999999999998
F1.02198313891
F0.25685497789599998
tp663
sI362088
(F4.0857999999999999
F1.0054005834599999
F0.15996479834999999
tp664
sI362089
(F4.5537999999999998
F1.01882044433
F0.15392223333800001
tp665
sI362090
(F4.2209000000000003
F1.0502002132199999
F0.15417639978299999
tp666
sI362091
(F4.3314000000000004
F0.99459386403600003
F0.154736363249
tp667
sI362092
(F4.9611000000000001
F0.98587031900099997
F0.16205118415700001
tp668
sI362093
(F3.7250999999999999
F1.03327716933
F0.15005768899899999
tp669
sI362094
(F4.7210999999999999
F0.98367655037400004
F0.152768973961
tp670
sI362095
(F3.9493999999999998
F1.02198313891
F0.15454184211700001
tp671
sI362096
(F0.24060000000000001
F1.0054005834599999
F0.57078798371299999
tp672
sI362097
(F0.27605000000000002
F1.01882044433
F0.56470482990000004
tp673
sI362098
(F0.24998999999999999
F1.0502002132199999
F0.57506219238099998
tp674
sI362099
(F0.26229000000000002
F0.99459386403600003
F0.57359713478399998
tp675
sI362100
(F0.30541000000000001
F0.98587031900099997
F0.56119023160500003
tp676
sI362101
(F0.21845999999999999
F1.03327716933
F0.584427212438
tp677
sI362102
(F0.27398
F0.98367655037400004
F0.579072567968
tp678
sI362103
(F0.244756
F1.02198313891
F0.57211714949000003
tp679
sI362104
(F0.24060000000000001
F1.0054005834599999
F0.27191160205199999
tp680
sI362105
(F0.27605000000000002
F1.01882044433
F0.274285026002
tp681
sI362106
(F0.24998999999999999
F1.0502002132199999
F0.26684128927299999
tp682
sI362107
(F0.26229000000000002
F0.99459386403600003
F0.267347528848
tp683
sI362108
(F0.30541000000000001
F0.98587031900099997
F0.27894434294100001
tp684
sI362109
(F0.21845999999999999
F1.03327716933
F0.262360373162
tp685
sI362110
(F0.27398
F0.98367655037400004
F0.26913614170799999
tp686
sI362111
(F0.24475
F1.02198313891
F0.26913614170799999
tp687
sI362112
(F0.24060000000000001
F1.0054005834599999
F0.16505946504800001
tp688
sI362113
(F0.27605000000000002
F1.01882044433
F0.161010440654
tp689
sI362114
(F0.24998999999999999
F1.0502002132199999
F0.163825025992
tp690
sI362115
(F0.26229000000000002
F0.99459386403600003
F0.15971973116099999
tp691
sI362116
(F0.30541000000000001
F0.98587031900099997
F0.17084247703
tp692
sI362117
(F0.21845999999999999
F1.03327716933
F0.156288935475
tp693
sI362118
(F0.27398
F0.98367655037400004
F0.16309989524599999
tp694
sI362119
(F0.24475
F1.02198313891
F0.163020466847
tp695
sI362120
(F0.042389999999999997
F1.0054005834599999
F0.5579299003
tp696
sI362121
(F0.048280999999999998
F1.01882044433
F0.56670231627599998
tp697
sI362122
(F0.043050999999999999
F1.0502002132199999
F0.56198403757500004
tp698
sI362123
(F0.045435999999999997
F0.99459386403600003
F0.56427604246600005
tp699
sI362124
(F0.054108000000000003
F0.98587031900099997
F0.54952446291199997
tp700
sI362125
(F0.037860999999999999
F1.03327716933
F0.56920228000399997
tp701
sI362126
(F0.046898000000000002
F0.98367655037400004
F0.60197266698200003
tp702
sI362127
(F0.042971000000000002
F1.02198313891
F0.57250240854000001
tp703
sI362128
(F0.042389999999999997
F1.0054005834599999
F0.27417087087199998
tp704
sI362129
(F0.048280999999999998
F1.01882044433
F0.28198510877499999
tp705
sI362130
(F0.043050999999999999
F1.0502002132199999
F0.28397871581200002
tp706
sI362131
(F0.045435999999999997
F0.99459386403600003
F0.27257681797599997
tp707
sI362132
(F0.054108000000000003
F0.98587031900099997
F0.28909339457900002
tp708
sI362133
(F0.037860999999999999
F1.03327716933
F0.27201902013899998
tp709
sI362134
(F0.046898000000000002
F0.98367655037400004
F0.28018132148699998
tp710
sI362135
(F0.042971000000000002
F1.02198313891
F0.278700773259
tp711
sI362136
(F0.042389999999999997
F1.0054005834599999
F0.16789912882999999
tp712
sI362137
(F0.048280999999999998
F1.01882044433
F0.16390526385099999
tp713
sI362138
(F0.043050999999999999
F1.0502002132199999
F0.16835872345299999
tp714
sI362139
(F0.045435999999999997
F0.99459386403600003
F0.16182048572999999
tp715
sI362140
(F0.054108000000000003
F0.98587031900099997
F0.175383226512
tp716
sI362141
(F0.037860999999999999
F1.03327716933
F0.16013044407599999
tp717
sI362142
(F0.046898000000000002
F0.98367655037400004
F0.16429418767100001
tp718
sI362143
(F0.042971000000000002
F1.02198313891
F0.14879681819999999
tp719
sI362144
(F0.0055364999999999998
F1.0054005834599999
F0.56773084649899996
tp720
sI362145
(F0.0064980000000000003
F1.01882044433
F0.53318607179999999
tp721
sI362146
(F0.0055227999999999996
F1.0502002132199999
F0.56024567131900005
tp722
sI362147
(F0.0057948000000000001
F0.99459386403600003
F0.55475776621799999
tp723
sI362148
(F0.0079666000000000008
F0.98587031900099997
F0.54605708884399995
tp724
sI362149
(F0.0047701999999999996
F1.03327716933
F0.56362114815599995
tp725
sI362150
(F0.0058481999999999996
F0.98367655037400004
F0.55765178955399997
tp726
sI362151
(F0.0056804999999999998
F1.02198313891
F0.56234941486699996
tp727
sI362152
(F0.0055364999999999998
F1.0054005834599999
F0.286149330107
tp728
sI362153
(F0.0064980000000000003
F1.01882044433
F0.28467868022800003
tp729
sI362154
(F0.0055227999999999996
F1.0502002132199999
F0.29079515379699999
tp730
sI362155
(F0.0057948000000000001
F0.99459386403600003
F0.28804588624900002
tp731
sI362156
(F0.0079666000000000008
F0.98587031900099997
F0.303383129822
tp732
sI362157
(F0.0047701999999999996
F1.03327716933
F0.27950536624299999
tp733
sI362158
(F0.0058481999999999996
F0.98367655037400004
F0.28767023169900002
tp734
sI362159
(F0.0056804999999999998
F1.02198313891
F0.286103030225
tp735
sI362160
(F0.0055364999999999998
F1.0054005834599999
F0.188112386588
tp736
sI362161
(F0.0064980000000000003
F1.01882044433
F0.182135247986
tp737
sI362162
(F0.0055227999999999996
F1.0502002132199999
F0.17665837257299999
tp738
sI362163
(F0.0057948000000000001
F0.99459386403600003
F0.16676855167099999
tp739
sI362164
(F0.0079666000000000008
F0.98587031900099997
F0.15055972989999999
tp740
sI362165
(F0.0047701999999999996
F1.03327716933
F0.164662317462
tp741
sI362166
(F0.0058481999999999996
F0.98367655037400004
F0.17359391348200001
tp742
sI362167
(F0.0056804999999999998
F1.02198313891
F0.17419848703400001
tp743
sI362168
(F2.3731999999999999e-05
F1.0054005834599999
F0.59533280363999996
tp744
sI362169
(F2.9201999999999999e-05
F1.01882044433
F0.61727183393999996
tp745
sI362170
(F2.3913e-05
F1.0502002132199999
F0.60554629709499996
tp746
sI362171
(F2.4499999999999999e-05
F0.99459386403600003
F0.55868402809200002
tp747
sI362172
(F3.0750000000000002e-05
F0.98587031900099997
F0.60551544628200005
tp748
sI362173
(F1.9847000000000002e-05
F1.03327716933
F0.57522854666599998
tp749
sI362174
(F2.3961e-05
F0.98367655037400004
F0.56001358709500004
tp750
sI362175
(F2.6213000000000001e-05
F1.02198313891
F0.57477071343700004
tp751
sI362176
(F2.3731999999999999e-05
F1.0054005834599999
F0.34968118129100001
tp752
sI362177
(F2.9201999999999999e-05
F1.01882044433
F0.33612764109999999
tp753
sI362178
(F2.3913e-05
F1.0502002132199999
F0.33566085357300002
tp754
sI362179
(F2.4499999999999999e-05
F0.99459386403600003
F0.28861238804200001
tp755
sI362180
(F3.0750000000000002e-05
F0.98587031900099997
F0.3480191997
tp756
sI362181
(F1.9847000000000002e-05
F1.03327716933
F0.30929060932500002
tp757
sI362182
(F2.3961e-05
F0.98367655037400004
F0.33663945425800001
tp758
sI362183
(F2.6213000000000001e-05
F1.02198313891
F0.32266660354999999
tp759
sI362184
(F2.3731999999999999e-05
F1.0054005834599999
F0.21172611112600001
tp760
sI362185
(F2.9201999999999999e-05
F1.01882044433
F0.21466434552999999
tp761
sI362186
(F2.3913e-05
F1.0502002132199999
F0.23566734739
tp762
sI362187
(F2.4499999999999999e-05
F0.99459386403600003
F0.185984186573
tp763
sI362188
(F3.0750000000000002e-05
F0.98587031900099997
F0.220474953877
tp764
sI362189
(F1.9847000000000002e-05
F1.03327716933
F0.190020404334
tp765
sI362190
(F2.3961e-05
F0.98367655037400004
F0.193093017058
tp766
sI362191
(F2.6213000000000001e-05
F1.02198313891
F0.21533084020099999
tp767
sI362192
(F2212
F0.89980099999999996
F0.77590000000000003
tp768
sI362193
(F2175
F0.91361999999999999
F0.77929999999999999
tp769
sI362194
(F2107
F0.94292100000000001
F0.77839999999999998
tp770
sI362195
(F2258
F0.88133799999999995
F0.78010000000000002
tp771
sI362196
(F2236
F0.88645499999999999
F0.7802
tp772
sI362197
(F2153
F0.92640599999999995
F0.7782
tp773
sI362198
(F2240
F0.88350399999999996
F0.78110000000000002
tp774
sI362199
(F2178
F0.91651499999999997
F0.77769999999999995
tp775
sI362200
(F2212
F0.89980099999999996
F0.14360000000000001
tp776
sI362201
(F2175
F0.91361999999999999
F0.14199999999999999
tp777
sI362202
(F2107
F0.94292100000000001
F0.14280000000000001
tp778
sI362203
(F2258
F0.88133799999999995
F0.1416
tp779
sI362204
(F2236
F0.88645499999999999
F0.1424
tp780
sI362205
(F2153
F0.92640599999999995
F0.1414
tp781
sI362206
(F2240
F0.88350399999999996
F0.14130000000000001
tp782
sI362207
(F2178
F0.91651499999999997
F0.1424
tp783
sI362208
(F2212
F0.89980099999999996
F0.080670000000000006
tp784
sI362209
(F2175
F0.91361999999999999
F0.079189999999999997
tp785
sI362210
(F2107
F0.94292100000000001
F0.07893
tp786
sI362211
(F2258
F0.88133799999999995
F0.078969999999999999
tp787
sI362212
(F2236
F0.88645499999999999
F0.078170000000000003
tp788
sI362213
(F2153
F0.92640599999999995
F0.080009999999999998
tp789
sI362214
(F2240
F0.88350399999999996
F0.078229999999999994
tp790
sI362215
(F2178
F0.91651499999999997
F0.079869999999999997
tp791
sI362216
(F73.219999999999999
F0.89980099999999996
F0.64629999999999999
tp792
sI362217
(F74.469999999999999
F0.91361999999999999
F0.65820000000000001
tp793
sI362218
(F73.030000000000001
F0.94292100000000001
F0.65439999999999998
tp794
sI362219
(F75.109999999999999
F0.88133799999999995
F0.65180000000000005
tp795
sI362220
(F81.969999999999999
F0.88645499999999999
F0.6512
tp796
sI362221
(F67.319999999999993
F0.92640599999999995
F0.6522
tp797
sI362222
(F86.040000000000006
F0.88350399999999996
F0.66259999999999997
tp798
sI362223
(F65.930000000000007
F0.91651499999999997
F0.64910000000000001
tp799
sI362224
(F73.219999999999999
F0.89980099999999996
F0.22239999999999999
tp800
sI362225
(F74.469999999999999
F0.91361999999999999
F0.21759999999999999
tp801
sI362226
(F73.030000000000001
F0.94292100000000001
F0.22009999999999999
tp802
sI362227
(F75.109999999999999
F0.88133799999999995
F0.21940000000000001
tp803
sI362228
(F81.969999999999999
F0.88645499999999999
F0.2223
tp804
sI362229
(F67.319999999999993
F0.92640599999999995
F0.21859999999999999
tp805
sI362230
(F86.040000000000006
F0.88350399999999996
F0.2145
tp806
sI362231
(F65.930000000000007
F0.91651499999999997
F0.21959999999999999
tp807
sI362232
(F73.219999999999999
F0.89980099999999996
F0.1376
tp808
sI362233
(F74.469999999999999
F0.91361999999999999
F0.129
tp809
sI362234
(F73.030000000000001
F0.94292100000000001
F0.1273
tp810
sI362235
(F75.109999999999999
F0.88133799999999995
F0.12989999999999999
tp811
sI362236
(F81.969999999999999
F0.88645499999999999
F0.12989999999999999
tp812
sI362237
(F67.319999999999993
F0.92640599999999995
F0.1293
tp813
sI362238
(F86.040000000000006
F0.88350399999999996
F0.12479999999999999
tp814
sI362239
(F65.930000000000007
F0.91651499999999997
F0.13009999999999999
tp815
sI362240
(F10.65
F0.89980099999999996
F0.61539999999999995
tp816
sI362241
(F11.470000000000001
F0.91361999999999999
F0.62829999999999997
tp817
sI362242
(F10.99
F0.94292100000000001
F0.61839999999999995
tp818
sI362243
(F11.039999999999999
F0.88133799999999995
F0.61750000000000005
tp819
sI362244
(F12.470000000000001
F0.88645499999999999
F0.60899999999999999
tp820
sI362245
(F9.766
F0.92640599999999995
F0.62329999999999997
tp821
sI362246
(F12.630000000000001
F0.88350399999999996
F0.62629999999999997
tp822
sI362247
(F9.8320000000000007
F0.91651499999999997
F0.61799999999999999
tp823
sI362248
(F10.65
F0.89980099999999996
F0.24429999999999999
tp824
sI362249
(F11.470000000000001
F0.91361999999999999
F0.24279999999999999
tp825
sI362250
(F10.99
F0.94292100000000001
F0.2387
tp826
sI362251
(F11.039999999999999
F0.88133799999999995
F0.23860000000000001
tp827
sI362252
(F12.470000000000001
F0.88645499999999999
F0.24429999999999999
tp828
sI362253
(F9.766
F0.92640599999999995
F0.23499999999999999
tp829
sI362254
(F12.630000000000001
F0.88350399999999996
F0.23569999999999999
tp830
sI362255
(F9.8320000000000007
F0.91651499999999997
F0.2429
tp831
sI362256
(F10.65
F0.89980099999999996
F0.14910000000000001
tp832
sI362257
(F11.470000000000001
F0.91361999999999999
F0.14299999999999999
tp833
sI362258
(F10.99
F0.94292100000000001
F0.1449
tp834
sI362259
(F11.039999999999999
F0.88133799999999995
F0.1444
tp835
sI362260
(F12.470000000000001
F0.88645499999999999
F0.15290000000000001
tp836
sI362261
(F9.766
F0.92640599999999995
F0.14180000000000001
tp837
sI362262
(F12.630000000000001
F0.88350399999999996
F0.1389
tp838
sI362263
(F9.8320000000000007
F0.91651499999999997
F0.14560000000000001
tp839
sI362264
(F0.7298
F0.89980099999999996
F0.59199999999999997
tp840
sI362265
(F0.81630000000000003
F0.91361999999999999
F0.59389999999999998
tp841
sI362266
(F0.75800000000000001
F0.94292100000000001
F0.59179999999999999
tp842
sI362267
(F0.77629999999999999
F0.88133799999999995
F0.59230000000000005
tp843
sI362268
(F0.89649999999999996
F0.88645499999999999
F0.57950000000000002
tp844
sI362269
(F0.66539999999999999
F0.92640599999999995
F0.59970000000000001
tp845
sI362270
(F0.84689999999999999
F0.88350399999999996
F0.59819999999999995
tp846
sI362271
(F0.71340000000000003
F0.91651499999999997
F0.59230000000000005
tp847
sI362272
(F0.7298
F0.89980099999999996
F0.2641
tp848
sI362273
(F0.81630000000000003
F0.91361999999999999
F0.2631
tp849
sI362274
(F0.75800000000000001
F0.94292100000000001
F0.25829999999999997
tp850
sI362275
(F0.77629999999999999
F0.88133799999999995
F0.25829999999999997
tp851
sI362276
(F0.89649999999999996
F0.88645499999999999
F0.26379999999999998
tp852
sI362277
(F0.66539999999999999
F0.92640599999999995
F0.25330000000000003
tp853
sI362278
(F0.84689999999999999
F0.88350399999999996
F0.25269999999999998
tp854
sI362279
(F0.71340000000000003
F0.91651499999999997
F0.26029999999999998
tp855
sI362280
(F0.7298
F0.89980099999999996
F0.1593
tp856
sI362281
(F0.81630000000000003
F0.91361999999999999
F0.15409999999999999
tp857
sI362282
(F0.75800000000000001
F0.94292100000000001
F0.15329999999999999
tp858
sI362283
(F0.77629999999999999
F0.88133799999999995
F0.14940000000000001
tp859
sI362284
(F0.89649999999999996
F0.88645499999999999
F0.1585
tp860
sI362285
(F0.66539999999999999
F0.92640599999999995
F0.14990000000000001
tp861
sI362286
(F0.84689999999999999
F0.88350399999999996
F0.15140000000000001
tp862
sI362287
(F0.71340000000000003
F0.91651499999999997
F0.15210000000000001
tp863
sI362288
(F0.044170000000000001
F0.89980099999999996
F0.57489999999999997
tp864
sI362289
(F0.05076
F0.91361999999999999
F0.57399999999999995
tp865
sI362290
(F0.045650000000000003
F0.94292100000000001
F0.56620000000000004
tp866
sI362291
(F0.047120000000000002
F0.88133799999999995
F0.57279999999999998
tp867
sI362292
(F0.055509999999999997
F0.88645499999999999
F0.5585
tp868
sI362293
(F0.039609999999999999
F0.92640599999999995
F0.58320000000000005
tp869
sI362294
(F0.04956
F0.88350399999999996
F0.57420000000000004
tp870
sI362295
(F0.044609999999999997
F0.91651499999999997
F0.57430000000000003
tp871
sI362296
(F0.044170000000000001
F0.89980099999999996
F0.27400000000000002
tp872
sI362297
(F0.05076
F0.91361999999999999
F0.27489999999999998
tp873
sI362298
(F0.045650000000000003
F0.94292100000000001
F0.27460000000000001
tp874
sI362299
(F0.047120000000000002
F0.88133799999999995
F0.26879999999999998
tp875
sI362300
(F0.055509999999999997
F0.88645499999999999
F0.28460000000000002
tp876
sI362301
(F0.039609999999999999
F0.92640599999999995
F0.26479999999999998
tp877
sI362302
(F0.04956
F0.88350399999999996
F0.2666
tp878
sI362303
(F0.044609999999999997
F0.91651499999999997
F0.27289999999999998
tp879
sI362304
(F0.044170000000000001
F0.89980099999999996
F0.18190000000000001
tp880
sI362305
(F0.05076
F0.91361999999999999
F0.17879999999999999
tp881
sI362306
(F0.045650000000000003
F0.94292100000000001
F0.16900000000000001
tp882
sI362307
(F0.047120000000000002
F0.88133799999999995
F0.16209999999999999
tp883
sI362308
(F0.055509999999999997
F0.88645499999999999
F0.17960000000000001
tp884
sI362309
(F0.039609999999999999
F0.92640599999999995
F0.1575
tp885
sI362310
(F0.04956
F0.88350399999999996
F0.161
tp886
sI362311
(F0.044609999999999997
F0.91651499999999997
F0.1671
tp887
sI362312
(F0.007646
F0.89980099999999996
F0.627
tp888
sI362313
(F0.0090030000000000006
F0.91361999999999999
F0.60409999999999997
tp889
sI362314
(F0.008012
F0.94292100000000001
F0.61639999999999995
tp890
sI362315
(F0.0083840000000000008
F0.88133799999999995
F0.61199999999999999
tp891
sI362316
(F0.0099830000000000006
F0.88645499999999999
F0.61639999999999995
tp892
sI362317
(F0.0069109999999999996
F0.92640599999999995
F0.61909999999999998
tp893
sI362318
(F0.008744
F0.88350399999999996
F0.61799999999999999
tp894
sI362319
(F0.0079279999999999993
F0.91651499999999997
F0.60899999999999999
tp895
sI362320
(F0.007646
F0.89980099999999996
F0.28149999999999997
tp896
sI362321
(F0.0090030000000000006
F0.91361999999999999
F0.2868
tp897
sI362322
(F0.008012
F0.94292100000000001
F0.28389999999999999
tp898
sI362323
(F0.0083840000000000008
F0.88133799999999995
F0.28460000000000002
tp899
sI362324
(F0.0099830000000000006
F0.88645499999999999
F0.28389999999999999
tp900
sI362325
(F0.0069109999999999996
F0.92640599999999995
F0.2661
tp901
sI362326
(F0.008744
F0.88350399999999996
F0.26229999999999998
tp902
sI362327
(F0.0079279999999999993
F0.91651499999999997
F0.28129999999999999
tp903
sI362328
(F0.007646
F0.89980099999999996
F0.1845
tp904
sI362329
(F0.0090030000000000006
F0.91361999999999999
F0.18110000000000001
tp905
sI362330
(F0.008012
F0.94292100000000001
F0.17319999999999999
tp906
sI362331
(F0.0083840000000000008
F0.88133799999999995
F0.16059999999999999
tp907
sI362332
(F0.0099830000000000006
F0.88645499999999999
F0.17319999999999999
tp908
sI362333
(F0.0069109999999999996
F0.92640599999999995
F0.15939999999999999
tp909
sI362334
(F0.008744
F0.88350399999999996
F0.16639999999999999
tp910
sI362335
(F0.0079279999999999993
F0.91651499999999997
F0.1731
tp911
sI362336
(F0.00098909999999999992
F0.89980099999999996
F0.54910000000000003
tp912
sI362337
(F0.00116
F0.91361999999999999
F0.56530000000000002
tp913
sI362338
(F0.001016
F0.94292100000000001
F0.56530000000000002
tp914
sI362339
(F0.0010759999999999999
F0.88133799999999995
F0.55089999999999995
tp915
sI362340
(F0.0013010000000000001
F0.88645499999999999
F0.54459999999999997
tp916
sI362341
(F0.00088520000000000005
F0.92640599999999995
F0.56759999999999999
tp917
sI362342
(F0.0010759999999999999
F0.88350399999999996
F0.56759999999999999
tp918
sI362343
(F0.001031
F0.91651499999999997
F0.54900000000000004
tp919
sI362344
(F0.00098909999999999992
F0.89980099999999996
F0.29680000000000001
tp920
sI362345
(F0.00116
F0.91361999999999999
F0.2838
tp921
sI362346
(F0.001016
F0.94292100000000001
F0.2838
tp922
sI362347
(F0.0010759999999999999
F0.88133799999999995
F0.28720000000000001
tp923
sI362348
(F0.0013010000000000001
F0.88645499999999999
F0.30349999999999999
tp924
sI362349
(F0.00088520000000000005
F0.92640599999999995
F0.28760000000000002
tp925
sI362350
(F0.0010759999999999999
F0.88350399999999996
F0.28760000000000002
tp926
sI362351
(F0.001031
F0.91651499999999997
F0.29360000000000003
tp927
sI362352
(F0.00098909999999999992
F0.89980099999999996
F0.18559999999999999
tp928
sI362353
(F0.00116
F0.91361999999999999
F0.15090000000000001
tp929
sI362354
(F0.001016
F0.94292100000000001
F0.15090000000000001
tp930
sI362355
(F0.0010759999999999999
F0.88133799999999995
F0.16600000000000001
tp931
sI362356
(F0.0013010000000000001
F0.88645499999999999
F0.1817
tp932
sI362357
(F0.00088520000000000005
F0.92640599999999995
F0.16500000000000001
tp933
sI362358
(F0.0010759999999999999
F0.88350399999999996
F0.16500000000000001
tp934
sI362359
(F0.001031
F0.91651499999999997
F0.17860000000000001
tp935
sI362360
(F4.4190000000000004e-06
F0.89980099999999996
F0.54369999999999996
tp936
sI362361
(F5.609e-06
F0.91361999999999999
F0.54369999999999996
tp937
sI362362
(F4.0999999999999997e-06
F0.94292100000000001
F0.50529999999999997
tp938
sI362363
(F4.481e-06
F0.88133799999999995
F0.52339999999999998
tp939
sI362364
(F5.3730000000000001e-06
F0.88645499999999999
F0.54559999999999997
tp940
sI362365
(F3.6619999999999998e-06
F0.92640599999999995
F0.56520000000000004
tp941
sI362366
(F4.3019999999999996e-06
F0.88350399999999996
F0.56510000000000005
tp942
sI362367
(F4.3839999999999999e-06
F0.91651499999999997
F0.56569999999999998
tp943
sI362368
(F4.4190000000000004e-06
F0.89980099999999996
F0.32119999999999999
tp944
sI362369
(F5.609e-06
F0.91361999999999999
F0.2412
tp945
sI362370
(F4.0999999999999997e-06
F0.94292100000000001
F0.30640000000000001
tp946
sI362371
(F4.481e-06
F0.88133799999999995
F0.29449999999999998
tp947
sI362372
(F5.3730000000000001e-06
F0.88645499999999999
F0.31780000000000003
tp948
sI362373
(F3.6619999999999998e-06
F0.92640599999999995
F0.28649999999999998
tp949
sI362374
(F4.3019999999999996e-06
F0.88350399999999996
F0.29420000000000002
tp950
sI362375
(F4.3839999999999999e-06
F0.91651499999999997
F0.33050000000000002
tp951
sI362376
(F4.4190000000000004e-06
F0.89980099999999996
F0.2074
tp952
sI362377
(F5.609e-06
F0.91361999999999999
F0.21510000000000001
tp953
sI362378
(F4.0999999999999997e-06
F0.94292100000000001
F0.1883
tp954
sI362379
(F4.481e-06
F0.88133799999999995
F0.17530000000000001
tp955
sI362380
(F5.3730000000000001e-06
F0.88645499999999999
F0.2001
tp956
sI362381
(F3.6619999999999998e-06
F0.92640599999999995
F0.16919999999999999
tp957
sI362382
(F4.3019999999999996e-06
F0.88350399999999996
F0.1779
tp958
sI362383
(F4.3839999999999999e-06
F0.91651499999999997
F0.18629999999999999
tp959
sI362384
(F21390
F0.90836399999999995
F0.88800000000000001
tp960
sI362385
(F21100
F0.92053200000000002
F0.89290000000000003
tp961
sI362386
(F20390
F0.95162599999999997
F0.88980000000000004
tp962
sI362387
(F21940
F0.88654299999999997
F0.89129999999999998
tp963
sI362388
(F21720
F0.89189799999999997
F0.88939999999999997
tp964
sI362389
(F20910
F0.93180799999999997
F0.89249999999999996
tp965
sI362390
(F21750
F0.88932100000000003
F0.89180000000000004
tp966
sI362391
(F21090
F0.92484500000000003
F0.89090000000000003
tp967
sI362392
(F21390
F0.90836399999999995
F0.050750000000000003
tp968
sI362393
(F21100
F0.92053200000000002
F0.046730000000000001
tp969
sI362394
(F20390
F0.95162599999999997
F0.049639999999999997
tp970
sI362395
(F21940
F0.88654299999999997
F0.049000000000000002
tp971
sI362396
(F21720
F0.89189799999999997
F0.049689999999999998
tp972
sI362397
(F20910
F0.93180799999999997
F0.048189999999999997
tp973
sI362398
(F21750
F0.88932100000000003
F0.048590000000000001
tp974
sI362399
(F21090
F0.92484500000000003
F0.048829999999999998
tp975
sI362400
(F21390
F0.90836399999999995
F0.06123
tp976
sI362401
(F21100
F0.92053200000000002
F0.060299999999999999
tp977
sI362402
(F20390
F0.95162599999999997
F0.060499999999999998
tp978
sI362403
(F21940
F0.88654299999999997
F0.0596
tp979
sI362404
(F21720
F0.89189799999999997
F0.06089
tp980
sI362405
(F20910
F0.93180799999999997
F0.05919
tp981
sI362406
(F21750
F0.88932100000000003
F0.059459999999999999
tp982
sI362407
(F21090
F0.92484500000000003
F0.060310000000000002
tp983
sI362408
(F616.20000000000005
F0.90836399999999995
F0.72219999999999995
tp984
sI362409
(F614.89999999999998
F0.92053200000000002
F0.7369
tp985
sI362410
(F615.5
F0.95162599999999997
F0.72889999999999999
tp986
sI362411
(F623.20000000000005
F0.88654299999999997
F0.72750000000000004
tp987
sI362412
(F684.70000000000005
F0.89189799999999997
F0.72570000000000001
tp988
sI362413
(F560.79999999999995
F0.93180799999999997
F0.73199999999999998
tp989
sI362414
(F727.70000000000005
F0.88932100000000003
F0.7238
tp990
sI362415
(F541.79999999999995
F0.92484500000000003
F0.7228
tp991
sI362416
(F616.20000000000005
F0.90836399999999995
F0.17680000000000001
tp992
sI362417
(F614.89999999999998
F0.92053200000000002
F0.17680000000000001
tp993
sI362418
(F615.5
F0.95162599999999997
F0.17560000000000001
tp994
sI362419
(F623.20000000000005
F0.88654299999999997
F0.1764
tp995
sI362420
(F684.70000000000005
F0.89189799999999997
F0.17699999999999999
tp996
sI362421
(F560.79999999999995
F0.93180799999999997
F0.17530000000000001
tp997
sI362422
(F727.70000000000005
F0.88932100000000003
F0.1668
tp998
sI362423
(F541.79999999999995
F0.92484500000000003
F0.1794
tp999
sI362424
(F616.20000000000005
F0.90836399999999995
F0.10100000000000001
tp1000
sI362425
(F614.89999999999998
F0.92053200000000002
F0.086300000000000002
tp1001
sI362426
(F615.5
F0.95162599999999997
F0.096350000000000005
tp1002
sI362427
(F623.20000000000005
F0.88654299999999997
F0.095710000000000003
tp1003
sI362428
(F684.70000000000005
F0.89189799999999997
F0.099479999999999999
tp1004
sI362429
(F560.79999999999995
F0.93180799999999997
F0.093689999999999996
tp1005
sI362430
(F727.70000000000005
F0.88932100000000003
F0.09085
tp1006
sI362431
(F541.79999999999995
F0.92484500000000003
F0.097820000000000004
tp1007
sI362432
(F82.760000000000005
F0.90836399999999995
F0.68400000000000005
tp1008
sI362433
(F87.319999999999993
F0.92053200000000002
F0.69340000000000002
tp1009
sI362434
(F85.290000000000006
F0.95162599999999997
F0.68830000000000002
tp1010
sI362435
(F85.219999999999999
F0.88654299999999997
F0.68789999999999996
tp1011
sI362436
(F97.180000000000007
F0.89189799999999997
F0.68830000000000002
tp1012
sI362437
(F75.269999999999996
F0.93180799999999997
F0.69440000000000002
tp1013
sI362438
(F97.609999999999999
F0.88932100000000003
F0.69710000000000005
tp1014
sI362439
(F76.540000000000006
F0.92484500000000003
F0.68430000000000002
tp1015
sI362440
(F82.760000000000005
F0.90836399999999995
F0.2059
tp1016
sI362441
(F87.319999999999993
F0.92053200000000002
F0.2059
tp1017
sI362442
(F85.290000000000006
F0.95162599999999997
F0.2011
tp1018
sI362443
(F85.219999999999999
F0.88654299999999997
F0.2029
tp1019
sI362444
(F97.180000000000007
F0.89189799999999997
F0.2107
tp1020
sI362445
(F75.269999999999996
F0.93180799999999997
F0.19750000000000001
tp1021
sI362446
(F97.609999999999999
F0.88932100000000003
F0.19420000000000001
tp1022
sI362447
(F76.540000000000006
F0.92484500000000003
F0.20449999999999999
tp1023
sI362448
(F82.760000000000005
F0.90836399999999995
F0.1101
tp1024
sI362449
(F87.319999999999993
F0.92053200000000002
F0.1007
tp1025
sI362450
(F85.290000000000006
F0.95162599999999997
F0.1106
tp1026
sI362451
(F85.219999999999999
F0.88654299999999997
F0.1115
tp1027
sI362452
(F97.180000000000007
F0.89189799999999997
F0.10100000000000001
tp1028
sI362453
(F75.269999999999996
F0.93180799999999997
F0.1081
tp1029
sI362454
(F97.609999999999999
F0.88932100000000003
F0.108
tp1030
sI362455
(F76.540000000000006
F0.92484500000000003
F0.11119999999999999
tp1031
sI362456
(F5.5810000000000004
F0.90836399999999995
F0.64829999999999999
tp1032
sI362457
(F6.0430000000000001
F0.92053200000000002
F0.65849999999999997
tp1033
sI362458
(F5.7149999999999999
F0.95162599999999997
F0.65749999999999997
tp1034
sI362459
(F5.8109999999999999
F0.88654299999999997
F0.65910000000000002
tp1035
sI362460
(F6.7619999999999996
F0.89189799999999997
F0.64270000000000005
tp1036
sI362461
(F4.9989999999999997
F0.93180799999999997
F0.66849999999999998
tp1037
sI362462
(F6.3360000000000003
F0.88932100000000003
F0.66000000000000003
tp1038
sI362463
(F5.383
F0.92484500000000003
F0.65759999999999996
tp1039
sI362464
(F5.5810000000000004
F0.90836399999999995
F0.2203
tp1040
sI362465
(F6.0430000000000001
F0.92053200000000002
F0.214
tp1041
sI362466
(F5.7149999999999999
F0.95162599999999997
F0.2142
tp1042
sI362467
(F5.8109999999999999
F0.88654299999999997
F0.2147
tp1043
sI362468
(F6.7619999999999996
F0.89189799999999997
F0.221
tp1044
sI362469
(F4.9989999999999997
F0.93180799999999997
F0.2089
tp1045
sI362470
(F6.3360000000000003
F0.88932100000000003
F0.2104
tp1046
sI362471
(F5.383
F0.92484500000000003
F0.21679999999999999
tp1047
sI362472
(F5.5810000000000004
F0.90836399999999995
F0.13139999999999999
tp1048
sI362473
(F6.0430000000000001
F0.92053200000000002
F0.12970000000000001
tp1049
sI362474
(F5.7149999999999999
F0.95162599999999997
F0.12839999999999999
tp1050
sI362475
(F5.8109999999999999
F0.88654299999999997
F0.1278
tp1051
sI362476
(F6.7619999999999996
F0.89189799999999997
F0.1363
tp1052
sI362477
(F4.9989999999999997
F0.93180799999999997
F0.1226
tp1053
sI362478
(F6.3360000000000003
F0.88932100000000003
F0.12570000000000001
tp1054
sI362479
(F5.383
F0.92484500000000003
F0.12889999999999999
tp1055
sI362480
(F0.3322
F0.90836399999999995
F0.6391
tp1056
sI362481
(F0.36909999999999998
F0.92053200000000002
F0.64570000000000005
tp1057
sI362482
(F0.34079999999999999
F0.95162599999999997
F0.63980000000000004
tp1058
sI362483
(F0.35220000000000001
F0.88654299999999997
F0.63919999999999999
tp1059
sI362484
(F0.41720000000000002
F0.89189799999999997
F0.62319999999999998
tp1060
sI362485
(F0.29520000000000002
F0.93180799999999997
F0.64980000000000004
tp1061
sI362486
(F0.36909999999999998
F0.88932100000000003
F0.64349999999999996
tp1062
sI362487
(F0.33389999999999997
F0.92484500000000003
F0.63770000000000004
tp1063
sI362488
(F0.3322
F0.90836399999999995
F0.22459999999999999
tp1064
sI362489
(F0.36909999999999998
F0.92053200000000002
F0.2195
tp1065
sI362490
(F0.34079999999999999
F0.95162599999999997
F0.2253
tp1066
sI362491
(F0.35220000000000001
F0.88654299999999997
F0.21959999999999999
tp1067
sI362492
(F0.41720000000000002
F0.89189799999999997
F0.23400000000000001
tp1068
sI362493
(F0.29520000000000002
F0.93180799999999997
F0.21279999999999999
tp1069
sI362494
(F0.36909999999999998
F0.88932100000000003
F0.22059999999999999
tp1070
sI362495
(F0.33389999999999997
F0.92484500000000003
F0.2266
tp1071
sI362496
(F0.3322
F0.90836399999999995
F0.14360000000000001
tp1072
sI362497
(F0.36909999999999998
F0.92053200000000002
F0.14249999999999999
tp1073
sI362498
(F0.34079999999999999
F0.95162599999999997
F0.14399999999999999
tp1074
sI362499
(F0.35220000000000001
F0.88654299999999997
F0.14119999999999999
tp1075
sI362500
(F0.41720000000000002
F0.89189799999999997
F0.15190000000000001
tp1076
sI362501
(F0.29520000000000002
F0.93180799999999997
F0.1368
tp1077
sI362502
(F0.36909999999999998
F0.88932100000000003
F0.14169999999999999
tp1078
sI362503
(F0.33389999999999997
F0.92484500000000003
F0.14660000000000001
tp1079
sI362504
(F0.060569999999999999
F0.90836399999999995
F0.62539999999999996
tp1080
sI362505
(F0.066000000000000003
F0.92053200000000002
F0.63429999999999997
tp1081
sI362506
(F0.059520000000000003
F0.95162599999999997
F0.62629999999999997
tp1082
sI362507
(F0.06225
F0.88654299999999997
F0.629
tp1083
sI362508
(F0.06966
F0.89189799999999997
F0.6149
tp1084
sI362509
(F0.052060000000000002
F0.93180799999999997
F0.6149
tp1085
sI362510
(F0.063799999999999996
F0.88932100000000003
F0.63519999999999999
tp1086
sI362511
(F0.06012
F0.92484500000000003
F0.63200000000000001
tp1087
sI362512
(F0.060569999999999999
F0.90836399999999995
F0.23910000000000001
tp1088
sI362513
(F0.066000000000000003
F0.92053200000000002
F0.2225
tp1089
sI362514
(F0.059520000000000003
F0.95162599999999997
F0.2273
tp1090
sI362515
(F0.06225
F0.88654299999999997
F0.2243
tp1091
sI362516
(F0.06966
F0.89189799999999997
F0.2384
tp1092
sI362517
(F0.052060000000000002
F0.93180799999999997
F0.24079999999999999
tp1093
sI362518
(F0.063799999999999996
F0.88932100000000003
F0.2268
tp1094
sI362519
(F0.06012
F0.92484500000000003
F0.22509999999999999
tp1095
sI362520
(F0.060569999999999999
F0.90836399999999995
F0.1484
tp1096
sI362521
(F0.066000000000000003
F0.92053200000000002
F0.14999999999999999
tp1097
sI362522
(F0.059520000000000003
F0.95162599999999997
F0.15809999999999999
tp1098
sI362523
(F0.06225
F0.88654299999999997
F0.14960000000000001
tp1099
sI362524
(F0.06966
F0.89189799999999997
F0.16089999999999999
tp1100
sI362525
(F0.052060000000000002
F0.93180799999999997
F0.14430000000000001
tp1101
sI362526
(F0.063799999999999996
F0.88932100000000003
F0.14729999999999999
tp1102
sI362527
(F0.06012
F0.92484500000000003
F0.15210000000000001
tp1103
sI362528
(F0.0076220000000000003
F0.90836399999999995
F0.61209999999999998
tp1104
sI362529
(F0.0087049999999999992
F0.92053200000000002
F0.6048
tp1105
sI362530
(F0.0077060000000000002
F0.95162599999999997
F0.62390000000000001
tp1106
sI362531
(F0.0082509999999999997
F0.88654299999999997
F0.60640000000000005
tp1107
sI362532
(F0.0097610000000000006
F0.89189799999999997
F0.60470000000000002
tp1108
sI362533
(F0.0067600000000000004
F0.93180799999999997
F0.63190000000000002
tp1109
sI362534
(F0.0082120000000000005
F0.88932100000000003
F0.6149
tp1110
sI362535
(F0.0079629999999999996
F0.92484500000000003
F0.61029999999999995
tp1111
sI362536
(F0.0076220000000000003
F0.90836399999999995
F0.2369
tp1112
sI362537
(F0.0087049999999999992
F0.92053200000000002
F0.2155
tp1113
sI362538
(F0.0077060000000000002
F0.95162599999999997
F0.23200000000000001
tp1114
sI362539
(F0.0082509999999999997
F0.88654299999999997
F0.22939999999999999
tp1115
sI362540
(F0.0097610000000000006
F0.89189799999999997
F0.245
tp1116
sI362541
(F0.0067600000000000004
F0.93180799999999997
F0.2253
tp1117
sI362542
(F0.0082120000000000005
F0.88932100000000003
F0.22650000000000001
tp1118
sI362543
(F0.0079629999999999996
F0.92484500000000003
F0.22409999999999999
tp1119
sI362544
(F0.0076220000000000003
F0.90836399999999995
F0.1774
tp1120
sI362545
(F0.0087049999999999992
F0.92053200000000002
F0.1797
tp1121
sI362546
(F0.0077060000000000002
F0.95162599999999997
F0.1772
tp1122
sI362547
(F0.0082509999999999997
F0.88654299999999997
F0.157
tp1123
sI362548
(F0.0097610000000000006
F0.89189799999999997
F0.1769
tp1124
sI362549
(F0.0067600000000000004
F0.93180799999999997
F0.1507
tp1125
sI362550
(F0.0082120000000000005
F0.88932100000000003
F0.17530000000000001
tp1126
sI362551
(F0.0079629999999999996
F0.92484500000000003
F0.16550000000000001
tp1127
sI362552
(F3.1970000000000001e-05
F0.90836399999999995
F0.61309999999999998
tp1128
sI362553
(F3.5590000000000003e-05
F0.92053200000000002
F0.61309999999999998
tp1129
sI362554
(F2.9479999999999999e-05
F0.95162599999999997
F0.61109999999999998
tp1130
sI362555
(F3.3160000000000001e-05
F0.88654299999999997
F0.62549999999999994
tp1131
sI362556
(F3.8980000000000003e-05
F0.89189799999999997
F0.60350000000000004
tp1132
sI362557
(F2.6829999999999999e-05
F0.93180799999999997
F0.63480000000000003
tp1133
sI362558
(F3.163e-05
F0.88932100000000003
F0.60729999999999995
tp1134
sI362559
(F3.3099999999999998e-05
F0.92484500000000003
F0.60160000000000002
tp1135
sI362560
(F3.1970000000000001e-05
F0.90836399999999995
F0.2389
tp1136
sI362561
(F3.5590000000000003e-05
F0.92053200000000002
F0.20130000000000001
tp1137
sI362562
(F2.9479999999999999e-05
F0.95162599999999997
F0.24729999999999999
tp1138
sI362563
(F3.3160000000000001e-05
F0.88654299999999997
F0.23619999999999999
tp1139
sI362564
(F3.8980000000000003e-05
F0.89189799999999997
F0.24729999999999999
tp1140
sI362565
(F2.6829999999999999e-05
F0.93180799999999997
F0.18729999999999999
tp1141
sI362566
(F3.163e-05
F0.88932100000000003
F0.24129999999999999
tp1142
sI362567
(F3.3099999999999998e-05
F0.92484500000000003
F0.2233
tp1143
sI362568
(F3.1970000000000001e-05
F0.90836399999999995
F0.18429999999999999
tp1144
sI362569
(F3.5590000000000003e-05
F0.92053200000000002
F0.18559999999999999
tp1145
sI362570
(F2.9479999999999999e-05
F0.95162599999999997
F0.18010000000000001
tp1146
sI362571
(F3.3160000000000001e-05
F0.88654299999999997
F0.1615
tp1147
sI362572
(F3.8980000000000003e-05
F0.89189799999999997
F0.17780000000000001
tp1148
sI362573
(F2.6829999999999999e-05
F0.93180799999999997
F0.17780000000000001
tp1149
sI362574
(F3.163e-05
F0.88932100000000003
F0.15140000000000001
tp1150
sI362575
(F3.3099999999999998e-05
F0.92484500000000003
F0.17380000000000001
tp1151
sI304776
(F52.707999999999998
F1
F1
tp1152
sI362800
(F31595
F1
F0.41099000000000002
tp1153
sI362801
(F37597
F1
F0.41175
tp1154
sI362802
(F38662
F1
F0.40681
tp1155
sI362803
(F30680
F1
F0.41503000000000001
tp1156
sI362804
(F27203
F1
F0.41325000000000001
tp1157
sI362805
(F47579
F1
F0.40725
tp1158
sI362806
(F28116
F1
F0.41117999999999999
tp1159
sI362807
(F45244
F1
F0.41241
tp1160
sI362808
(F31584
F1
F0.41087000000000001
tp1161
sI362809
(F37583
F1
F0.41177999999999998
tp1162
sI362810
(F38658
F1
F0.40679999999999999
tp1163
sI362811
(F30687
F1
F0.41497000000000001
tp1164
sI362812
(F27215
F1
F0.41324
tp1165
sI362813
(F47586
F1
F0.40722999999999998
tp1166
sI362814
(F28114
F1
F0.41122999999999998
tp1167
sI362815
(F45245
F1
F0.41254999999999997
tp1168
sI362816
(F31582
F1
F0.41078999999999999
tp1169
sI362817
(F37596
F1
F0.41161999999999999
tp1170
sI362818
(F38639
F1
F0.40676000000000001
tp1171
sI362819
(F30679
F1
F0.41471000000000002
tp1172
sI362820
(F27226
F1
F0.41338000000000003
tp1173
sI362821
(F47591
F1
F0.40649000000000002
tp1174
sI362822
(F28119
F1
F0.4113
tp1175
sI362823
(F45230
F1
F0.41248000000000001
tp1176
sI362824
(F2873.6999999999998
F1
F0.40134999999999998
tp1177
sI362825
(F3291.6999999999998
F1
F0.39849000000000001
tp1178
sI362826
(F3250.5999999999999
F1
F0.39693000000000001
tp1179
sI362827
(F2966.0999999999999
F1
F0.40211000000000002
tp1180
sI362828
(F2523.0999999999999
F1
F0.40288000000000002
tp1181
sI362829
(F4070.5999999999999
F1
F0.39455000000000001
tp1182
sI362830
(F2681.4000000000001
F1
F0.39939999999999998
tp1183
sI362831
(F3830.3000000000002
F1
F0.40195999999999998
tp1184
sI362832
(F2872.5999999999999
F1
F0.40106000000000003
tp1185
sI362833
(F3291.8000000000002
F1
F0.39885999999999999
tp1186
sI362834
(F3250.9000000000001
F1
F0.39762999999999998
tp1187
sI362835
(F2964.0999999999999
F1
F0.40184999999999998
tp1188
sI362836
(F2522.3000000000002
F1
F0.40318999999999999
tp1189
sI362837
(F4068.0999999999999
F1
F0.39490999999999998
tp1190
sI362838
(F2679.6999999999998
F1
F0.39962999999999999
tp1191
sI362839
(F3833.9000000000001
F1
F0.40178000000000003
tp1192
sI362840
(F2873.1999999999998
F1
F0.40176000000000001
tp1193
sI362841
(F3291
F1
F0.39784000000000003
tp1194
sI362842
(F3250.4000000000001
F1
F0.39688000000000001
tp1195
sI362843
(F2968.5
F1
F0.40201999999999999
tp1196
sI362844
(F2522.5
F1
F0.40350000000000003
tp1197
sI362845
(F4072.0999999999999
F1
F0.39478000000000002
tp1198
sI362846
(F2680.1999999999998
F1
F0.40004000000000001
tp1199
sI362847
(F3832.0999999999999
F1
F0.40255000000000002
tp1200
sI362848
(F237.74000000000001
F1
F0.39340999999999998
tp1201
sI362849
(F251.41
F1
F0.39085999999999999
tp1202
sI362850
(F244.65000000000001
F1
F0.39007999999999998
tp1203
sI362851
(F248.84
F1
F0.39362999999999998
tp1204
sI362852
(F194.11000000000001
F1
F0.39640999999999998
tp1205
sI362853
(F332.10000000000002
F1
F0.38723999999999997
tp1206
sI362854
(F219.72
F1
F0.39250000000000002
tp1207
sI362855
(F295.88999999999999
F1
F0.39346999999999999
tp1208
sI362856
(F237.72
F1
F0.39363999999999999
tp1209
sI362857
(F250.81
F1
F0.39158999999999999
tp1210
sI362858
(F244.49000000000001
F1
F0.39065
tp1211
sI362859
(F248.56999999999999
F1
F0.39415
tp1212
sI362860
(F194.16
F1
F0.39692
tp1213
sI362861
(F332.17000000000002
F1
F0.38717000000000001
tp1214
sI362862
(F219.71000000000001
F1
F0.39234000000000002
tp1215
sI362863
(F295.73000000000002
F1
F0.39356999999999998
tp1216
sI362864
(F237.94
F1
F0.39235999999999999
tp1217
sI362865
(F250.86000000000001
F1
F0.39108999999999999
tp1218
sI362866
(F244.47999999999999
F1
F0.39017000000000002
tp1219
sI362867
(F248.78999999999999
F1
F0.39344000000000001
tp1220
sI362868
(F194.08000000000001
F1
F0.39600999999999997
tp1221
sI362869
(F331.87
F1
F0.38701000000000002
tp1222
sI362870
(F219.90000000000001
F1
F0.39195999999999998
tp1223
sI362871
(F296.19999999999999
F1
F0.39263999999999999
tp1224
sI362872
(F13.535
F1
F0.38599
tp1225
sI362873
(F13.621
F1
F0.38573000000000002
tp1226
sI362874
(F12.94
F1
F0.38534000000000002
tp1227
sI362875
(F14.381
F1
F0.38672000000000001
tp1228
sI362876
(F10.459
F1
F0.38984999999999997
tp1229
sI362877
(F18.808
F1
F0.38007999999999997
tp1230
sI362878
(F12.569000000000001
F1
F0.38655
tp1231
sI362879
(F15.702
F1
F0.38629999999999998
tp1232
sI362880
(F13.513
F1
F0.38672000000000001
tp1233
sI362881
(F13.484
F1
F0.38588
tp1234
sI362882
(F12.962
F1
F0.38502999999999998
tp1235
sI362883
(F14.375
F1
F0.38804
tp1236
sI362884
(F10.446
F1
F0.38916000000000001
tp1237
sI362885
(F18.82
F1
F0.38063999999999998
tp1238
sI362886
(F12.568
F1
F0.38624999999999998
tp1239
sI362887
(F15.689
F1
F0.38639000000000001
tp1240
sI362888
(F13.550000000000001
F1
F0.38767000000000001
tp1241
sI362889
(F13.609
F1
F0.38607000000000002
tp1242
sI362890
(F12.943
F1
F0.38488
tp1243
sI362891
(F14.404999999999999
F1
F0.38647999999999999
tp1244
sI362892
(F10.430999999999999
F1
F0.38828000000000001
tp1245
sI362893
(F18.834
F1
F0.37939000000000001
tp1246
sI362894
(F12.561999999999999
F1
F0.38693
tp1247
sI362895
(F15.695
F1
F0.38675999999999999
tp1248
sI362896
(F0.92957000000000001
F1
F0.37998999999999999
tp1249
sI362897
(F0.91954000000000002
F1
F0.37948999999999999
tp1250
sI362898
(F0.84882999999999997
F1
F0.37967000000000001
tp1251
sI362899
(F1.0123
F1
F0.37858999999999998
tp1252
sI362900
(F0.69667999999999997
F1
F0.38290000000000002
tp1253
sI362901
(F1.2947
F1
F0.37509999999999999
tp1254
sI362902
(F0.87436999999999998
F1
F0.38005
tp1255
sI362903
(F1.0298
F1
F0.38042999999999999
tp1256
sI362904
(F0.92827999999999999
F1
F0.37907999999999997
tp1257
sI362905
(F0.90919000000000005
F1
F0.37896000000000002
tp1258
sI362906
(F0.85026999999999997
F1
F0.37796000000000002
tp1259
sI362907
(F1.0105
F1
F0.37928000000000001
tp1260
sI362908
(F0.69815000000000005
F1
F0.38312000000000002
tp1261
sI362909
(F1.2941
F1
F0.37502999999999997
tp1262
sI362910
(F0.87468000000000001
F1
F0.37920999999999999
tp1263
sI362911
(F1.0282
F1
F0.37977
tp1264
sI362912
(F0.92908999999999997
F1
F0.38074999999999998
tp1265
sI362913
(F0.91666999999999998
F1
F0.37681999999999999
tp1266
sI362914
(F0.85053000000000001
F1
F0.37524999999999997
tp1267
sI362915
(F1.0075000000000001
F1
F0.37996999999999997
tp1268
sI362916
(F0.69630999999999998
F1
F0.38172
tp1269
sI362917
(F1.2855000000000001
F1
F0.37957999999999997
tp1270
sI362918
(F0.87980999999999998
F1
F0.38149
tp1271
sI362919
(F1.0366
F1
F0.37840000000000001
tp1272
sI362920
(F0.018592999999999998
F1
F0.37009999999999998
tp1273
sI362921
(F0.018339000000000001
F1
F0.37092000000000003
tp1274
sI362922
(F0.016320000000000001
F1
F0.36979000000000001
tp1275
sI362923
(F0.021055000000000001
F1
F0.36923
tp1276
sI362924
(F0.013788
F1
F0.37170999999999998
tp1277
sI362925
(F0.026138999999999999
F1
F0.36679
tp1278
sI362926
(F0.017811
F1
F0.36990000000000001
tp1279
sI362927
(F0.019935000000000001
F1
F0.36941000000000002
tp1280
sI362928
(F0.018672000000000001
F1
F0.37071999999999999
tp1281
sI362929
(F0.018370999999999998
F1
F0.37025000000000002
tp1282
sI362930
(F0.016298
F1
F0.36898999999999998
tp1283
sI362931
(F0.021128000000000001
F1
F0.36958999999999997
tp1284
sI362932
(F0.013799000000000001
F1
F0.37389
tp1285
sI362933
(F0.026126
F1
F0.36704999999999999
tp1286
sI362934
(F0.017843999999999999
F1
F0.36920999999999998
tp1287
sI362935
(F0.020073000000000001
F1
F0.37080000000000002
tp1288
sI362936
(F0.018615
F1
F0.36747000000000002
tp1289
sI362937
(F0.018398999999999999
F1
F0.36886000000000002
tp1290
sI362938
(F0.016174000000000001
F1
F0.36660999999999999
tp1291
sI362939
(F0.020948000000000001
F1
F0.36564999999999998
tp1292
sI362940
(F0.013747000000000001
F1
F0.37641999999999998
tp1293
sI362941
(F0.025906999999999999
F1
F0.36612
tp1294
sI362942
(F0.017920999999999999
F1
F0.36514999999999997
tp1295
sI362943
(F0.02
F1
F0.37340000000000001
tp1296
sI362944
(F8.0507999999999996e-05
F1
F0.36632999999999999
tp1297
sI362945
(F7.8900999999999996e-05
F1
F0.36498000000000003
tp1298
sI362946
(F6.7131000000000005e-05
F1
F0.36807000000000001
tp1299
sI362947
(F9.5427000000000006e-05
F1
F0.36760999999999999
tp1300
sI362948
(F5.9661999999999999e-05
F1
F0.37048999999999999
tp1301
sI362949
(F0.00011271
F1
F0.36421999999999999
tp1302
sI362950
(F7.8682000000000003e-05
F1
F0.36825000000000002
tp1303
sI362951
(F8.4207000000000002e-05
F1
F0.36860999999999999
tp1304
sI362952
(F8.0175999999999999e-05
F1
F0.36732999999999999
tp1305
sI362953
(F7.9331000000000003e-05
F1
F0.36526999999999998
tp1306
sI362954
(F6.7157999999999996e-05
F1
F0.36301
tp1307
sI362955
(F9.5959999999999996e-05
F1
F0.36821999999999999
tp1308
sI362956
(F5.9604000000000001e-05
F1
F0.36919000000000002
tp1309
sI362957
(F0.00011260999999999999
F1
F0.36266999999999999
tp1310
sI362958
(F7.8638000000000002e-05
F1
F0.36619000000000002
tp1311
sI362959
(F8.4394999999999994e-05
F1
F0.36737999999999998
tp1312
sI362960
(F8.1112000000000005e-05
F1
F0.37063000000000001
tp1313
sI362961
(F8.0211999999999997e-05
F1
F0.36692999999999998
tp1314
sI362962
(F6.7162999999999994e-05
F1
F0.36251
tp1315
sI362963
(F9.6737000000000006e-05
F1
F0.36635000000000001
tp1316
sI362964
(F5.9673000000000003e-05
F1
F0.36613000000000001
tp1317
sI362965
(F0.00011314
F1
F0.36564999999999998
tp1318
sI362966
(F7.941e-05
F1
F0.36391000000000001
tp1319
sI362967
(F8.3783999999999996e-05
F1
F0.37080000000000002
tp1320
sI362968
(F2.6059999999999999e-09
F1
F0.44008999999999998
tp1321
sI362969
(F2.6117e-09
F1
F0.40512999999999999
tp1322
sI362970
(F1.8904e-09
F1
F0.43491999999999997
tp1323
sI362971
(F3.4707e-09
F1
F0.4511
tp1324
sI362972
(F1.9289999999999999e-09
F1
F0.44585999999999998
tp1325
sI362973
(F3.4653e-09
F1
F0.42579
tp1326
sI362974
(F2.5723999999999999e-09
F1
F0.41077999999999998
tp1327
sI362975
(F2.5706999999999998e-09
F1
F0.42213000000000001
tp1328
sI362976
(F2.5098000000000002e-09
F1
F0.42754999999999999
tp1329
sI362977
(F2.4921000000000001e-09
F1
F0.43578
tp1330
sI362978
(F1.9702000000000001e-09
F1
F0.43298999999999999
tp1331
sI362979
(F3.3754000000000002e-09
F1
F0.42662
tp1332
sI362980
(F1.9093e-09
F1
F0.41510000000000002
tp1333
sI362981
(F3.5886999999999998e-09
F1
F0.42921999999999999
tp1334
sI362982
(F2.4591999999999999e-09
F1
F0.41829
tp1335
sI362983
(F2.5793e-09
F1
F0.44573000000000002
tp1336
sI362984
(F2.6104e-09
F1
F0.43240000000000001
tp1337
sI362985
(F2.4459e-09
F1
F0.43419000000000002
tp1338
sI362986
(F1.986e-09
F1
F0.42105999999999999
tp1339
sI362987
(F3.5053999999999999e-09
F1
F0.42595
tp1340
sI362988
(F1.9407000000000001e-09
F1
F0.42437999999999998
tp1341
sI362989
(F3.5569e-09
F1
F0.42769000000000001
tp1342
sI362990
(F2.4452000000000002e-09
F1
F0.42881999999999998
tp1343
sI362991
(F2.6546999999999999e-09
F1
F0.44464999999999999
tp1344
sI363000
(F24.885000000000002
F0.91000000000000003
F1
tp1345
sI363001
(F24.885000000000002
F0.91000000000000003
F1
tp1346
sI363002
(F24.885000000000002
F0.91000000000000003
F1
tp1347
sI363003
(F24.885000000000002
F0.91000000000000003
F1
tp1348
sI363004
(F24.885000000000002
F0.91000000000000003
F1
tp1349
sI363005
(F24.885000000000002
F0.91000000000000003
F1
tp1350
sI363006
(F24.856999999999999
F0.91000000000000003
F1
tp1351
sI363007
(F24.856999999999999
F0.91000000000000003
F1
tp1352
sI363008
(F24.856999999999999
F0.91000000000000003
F1
tp1353
sI363009
(F24.856999999999999
F0.91000000000000003
F1
tp1354
sI363010
(F24.856999999999999
F0.91000000000000003
F1
tp1355
sI363011
(F24.856999999999999
F0.91000000000000003
F1
tp1356
sI363012
(F11.494
F0.91000000000000003
F1
tp1357
sI363013
(F11.494
F0.91000000000000003
F1
tp1358
sI363014
(F11.494
F0.91000000000000003
F1
tp1359
sI363015
(F11.494
F0.91000000000000003
F1
tp1360
sI363016
(F11.494
F0.91000000000000003
F1
tp1361
sI363017
(F11.494
F0.91000000000000003
F1
tp1362
sI363018
(F3.4234
F0.91000000000000003
F1
tp1363
sI363019
(F3.4234
F0.91000000000000003
F1
tp1364
sI363020
(F3.4234
F0.91000000000000003
F1
tp1365
sI363021
(F3.4234
F0.91000000000000003
F1
tp1366
sI363022
(F3.4234
F0.91000000000000003
F1
tp1367
sI363023
(F3.4234
F0.91000000000000003
F1
tp1368
sI363024
(F6.7770000000000001
F0.91000000000000003
F1
tp1369
sI363025
(F6.7770000000000001
F0.91000000000000003
F1
tp1370
sI363026
(F6.7770000000000001
F0.91000000000000003
F1
tp1371
sI363027
(F6.7770000000000001
F0.91000000000000003
F1
tp1372
sI363028
(F6.7770000000000001
F0.91000000000000003
F1
tp1373
sI363029
(F6.7770000000000001
F0.91000000000000003
F1
tp1374
sI363030
(F16.445
F0.91000000000000003
F0.14307
tp1375
sI363031
(F16.445
F0.91000000000000003
F0.14307
tp1376
sI363032
(F16.445
F0.91000000000000003
F0.14307
tp1377
sI363033
(F16.445
F0.91000000000000003
F0.14307
tp1378
sI363034
(F16.445
F0.91000000000000003
F0.14307
tp1379
sI363035
(F16.445
F0.91000000000000003
F0.14307
tp1380
sI363036
(F16.431999999999999
F0.91000000000000003
F0.28206999999999999
tp1381
sI363037
(F16.431999999999999
F0.91000000000000003
F0.28206999999999999
tp1382
sI363038
(F16.431999999999999
F0.91000000000000003
F0.28206999999999999
tp1383
sI363039
(F16.431999999999999
F0.91000000000000003
F0.28206999999999999
tp1384
sI363040
(F16.431999999999999
F0.91000000000000003
F0.28206999999999999
tp1385
sI363041
(F16.431999999999999
F0.91000000000000003
F0.28206999999999999
tp1386
sI363042
(F12.025
F0.91000000000000003
F1
tp1387
sI363043
(F13.082000000000001
F0.91000000000000003
F1
tp1388
sI363044
(F12.644
F0.91000000000000003
F1
tp1389
sI363045
(F13.097
F0.91000000000000003
F1
tp1390
sI363046
(F13.065
F0.91000000000000003
F1
tp1391
sI363047
(F12.460000000000001
F0.91000000000000003
F1
tp1392
sI363048
(F1.7919
F0.91000000000000003
F1
tp1393
sI363049
(F1.8675999999999999
F0.91000000000000003
F1
tp1394
sI363050
(F1.714
F0.91000000000000003
F1
tp1395
sI363051
(F2.0373999999999999
F0.91000000000000003
F1
tp1396
sI363052
(F1.8128
F0.91000000000000003
F1
tp1397
sI363053
(F1.8813
F0.91000000000000003
F1
tp1398
sI363054
(F3.5152999999999999
F0.91000000000000003
F1
tp1399
sI363055
(F3.6815000000000002
F0.91000000000000003
F1
tp1400
sI363056
(F3.3763000000000001
F0.91000000000000003
F1
tp1401
sI363057
(F3.9994000000000001
F0.91000000000000003
F1
tp1402
sI363058
(F3.5853000000000002
F0.91000000000000003
F1
tp1403
sI363059
(F3.6951999999999998
F0.91000000000000003
F1
tp1404
sI363060
(F2.4853999999999998
F0.91000000000000003
F1
tp1405
sI363061
(F2.6257999999999999
F0.91000000000000003
F1
tp1406
sI363062
(F2.3687999999999998
F0.91000000000000003
F1
tp1407
sI363063
(F2.8264999999999998
F0.91000000000000003
F1
tp1408
sI363064
(F2.5286
F0.91000000000000003
F1
tp1409
sI363065
(F2.6095000000000002
F0.91000000000000003
F1
tp1410
sI363066
(F4.9002999999999997
F0.91000000000000003
F1
tp1411
sI363067
(F5.1097000000000001
F0.91000000000000003
F1
tp1412
sI363068
(F4.6718999999999999
F0.91000000000000003
F1
tp1413
sI363069
(F5.5678999999999998
F0.91000000000000003
F1
tp1414
sI363070
(F4.9774000000000003
F0.91000000000000003
F1
tp1415
sI363071
(F5.1284999999999998
F0.91000000000000003
F1
tp1416
sI363072
(F13.972
F0.91000000000000003
F1
tp1417
sI363073
(F14.054
F0.91000000000000003
F1
tp1418
sI363074
(F13.461
F0.91000000000000003
F1
tp1419
sI363075
(F14.391
F0.91000000000000003
F1
tp1420
sI363076
(F13.912000000000001
F0.91000000000000003
F1
tp1421
sI363077
(F14.377000000000001
F0.91000000000000003
F1
tp1422
sI363078
(F0.021838
F0.91000000000000003
F1
tp1423
sI363079
(F0.019363999999999999
F0.91000000000000003
F1
tp1424
sI363080
(F0.015917000000000001
F0.91000000000000003
F1
tp1425
sI363081
(F0.028166
F0.91000000000000003
F1
tp1426
sI363082
(F0.017048000000000001
F0.91000000000000003
F1
tp1427
sI363083
(F0.026658000000000001
F0.91000000000000003
F1
tp1428
sI363084
(F0.87402999999999997
F0.91000000000000003
F1
tp1429
sI363085
(F0.82133999999999996
F0.91000000000000003
F1
tp1430
sI363086
(F0.65266999999999997
F0.91000000000000003
F1
tp1431
sI363087
(F1.1620999999999999
F0.91000000000000003
F1
tp1432
sI363088
(F0.68686000000000003
F0.91000000000000003
F1
tp1433
sI363089
(F1.1269
F0.91000000000000003
F1
tp1434
sI363090
(F3.4413999999999998
F0.91000000000000003
F1
tp1435
sI363091
(F3.3445999999999998
F0.91000000000000003
F1
tp1436
sI363092
(F3.0034000000000001
F0.91000000000000003
F1
tp1437
sI363093
(F3.9782000000000002
F0.91000000000000003
F1
tp1438
sI363094
(F3.3736999999999999
F0.91000000000000003
F1
tp1439
sI363095
(F3.4908999999999999
F0.91000000000000003
F1
tp1440
sI363096
(F0.66790000000000005
F0.91000000000000003
F1
tp1441
sI363097
(F0.64963000000000004
F0.91000000000000003
F1
tp1442
sI363098
(F0.59691000000000005
F0.91000000000000003
F1
tp1443
sI363099
(F0.75344
F0.91000000000000003
F1
tp1444
sI363100
(F0.65669999999999995
F0.91000000000000003
F1
tp1445
sI363101
(F0.67218
F0.91000000000000003
F1
tp1446
sI363102
(F71.686999999999998
F0.97509999999999997
F0.66879999999999995
tp1447
sI363103
(F71.653000000000006
F0.97509999999999997
F0.20080000000000001
tp1448
sI363104
(F71.679000000000002
F0.97509999999999997
F0.12637000000000001
tp1449
sI363105
(F11.031000000000001
F0.97509999999999997
F0.626
tp1450
sI363106
(F11.069000000000001
F0.97509999999999997
F0.22359999999999999
tp1451
sI363107
(F11.077999999999999
F0.97509999999999997
F0.14399999999999999
tp1452
sI363108
(F0.83514999999999995
F0.97509999999999997
F0.5978
tp1453
sI363109
(F0.82916000000000001
F0.97509999999999997
F0.24345
tp1454
sI363110
(F0.83457999999999999
F0.97509999999999997
F0.15276999999999999
tp1455
sI363111
(F0.053095000000000003
F0.97509999999999997
F0.58109999999999995
tp1456
sI363112
(F0.053205000000000002
F0.97509999999999997
F0.25459999999999999
tp1457
sI363113
(F0.052707999999999998
F0.97509999999999997
F0.1588
tp1458
sI363114
(F0.0097331999999999991
F0.97509999999999997
F0.56759999999999999
tp1459
sI363115
(F0.0095498000000000006
F0.97509999999999997
F0.25719999999999998
tp1460
sI363116
(F0.0095038999999999992
F0.97509999999999997
F0.15905
tp1461
sI363117
(F0.0012574000000000001
F0.97509999999999997
F0.56730000000000003
tp1462
sI363118
(F0.0012388
F0.97509999999999997
F0.26300000000000001
tp1463
sI363119
(F0.0012661
F0.97509999999999997
F0.1173
tp1464
sI363120
(F4.7535999999999997e-06
F0.97509999999999997
F0.5212
tp1465
sI363121
(F4.5410000000000002e-06
F0.97509999999999997
F0.29020000000000001
tp1466
sI363122
(F4.5615999999999997e-06
F0.97509999999999997
F0.188
tp1467
sI363123
(F1714.5
F1.1399999999999999
F0.83157000000000003
tp1468
sI363124
(F1715.5
F1.1399999999999999
F0.10835
tp1469
sI363125
(F1715.7
F1.1399999999999999
F0.059161999999999999
tp1470
sI363126
(F84.539000000000001
F1.1399999999999999
F0.71801999999999999
tp1471
sI363127
(F84.510999999999996
F1.1399999999999999
F0.17357
tp1472
sI363128
(F84.807000000000002
F1.1399999999999999
F0.10768
tp1473
sI363129
(F35.731000000000002
F1.1399999999999999
F0.67635999999999996
tp1474
sI363130
(F35.906999999999996
F1.1399999999999999
F0.20005999999999999
tp1475
sI363131
(F35.798000000000002
F1.1399999999999999
F0.12654000000000001
tp1476
sI363132
(F8.1730999999999998
F1.1399999999999999
F0.62683999999999995
tp1477
sI363133
(F8.2058999999999997
F1.1399999999999999
F0.22641
tp1478
sI363134
(F8.1738999999999997
F1.1399999999999999
F0.14276
tp1479
sI363135
(F1.2525999999999999
F1.1399999999999999
F0.59567000000000003
tp1480
sI363136
(F1.2623
F1.1399999999999999
F0.25546999999999997
tp1481
sI363137
(F1.276
F1.1399999999999999
F0.15225
tp1482
sI363138
(F0.43601000000000001
F1.1399999999999999
F0.57118000000000002
tp1483
sI363139
(F0.44623000000000002
F1.1399999999999999
F0.25947999999999999
tp1484
sI363140
(F0.44567000000000001
F1.1399999999999999
F0.15964999999999999
tp1485
sI363141
(F0.14899000000000001
F1.1399999999999999
F0.54908000000000001
tp1486
sI363142
(F0.14624999999999999
F1.1399999999999999
F0.27163999999999999
tp1487
sI363143
(F0.14704999999999999
F1.1399999999999999
F0.17299
tp1488
sI363144
(F0.0055380000000000004
F1.1399999999999999
F0.56337000000000004
tp1489
sI363145
(F0.0055465999999999996
F1.1399999999999999
F0.29293999999999998
tp1490
sI363146
(F0.0056422
F1.1399999999999999
F0.16306999999999999
tp1491
sI363147
(F1719.7
F1.141
F0.83291999999999999
tp1492
sI363148
(F1719.4000000000001
F1.141
F0.10775
tp1493
sI363149
(F1719.4000000000001
F1.141
F0.059156
tp1494
sI363150
(F85.105000000000004
F1.141
F0.71753999999999996
tp1495
sI363151
(F85.040999999999997
F1.141
F0.17377000000000001
tp1496
sI363152
(F85.174999999999997
F1.141
F0.10763
tp1497
sI363153
(F36.005000000000003
F1.141
F0.67279
tp1498
sI363154
(F36.027999999999999
F1.141
F0.19996
tp1499
sI363155
(F36.060000000000002
F1.141
F0.12486
tp1500
sI363156
(F8.2053999999999991
F1.141
F0.62846000000000002
tp1501
sI363157
(F8.2126000000000001
F1.141
F0.22725999999999999
tp1502
sI363158
(F8.2474000000000007
F1.141
F0.14193
tp1503
sI363159
(F1.2733000000000001
F1.141
F0.59660000000000002
tp1504
sI363160
(F1.2729999999999999
F1.141
F0.24847
tp1505
sI363161
(F1.2722
F1.141
F0.15256
tp1506
sI363162
(F0.44546000000000002
F1.141
F0.57676000000000005
tp1507
sI363163
(F0.44611000000000001
F1.141
F0.26136999999999999
tp1508
sI363164
(F0.44602999999999998
F1.141
F0.16181000000000001
tp1509
sI363165
(F0.15207999999999999
F1.141
F0.55542999999999998
tp1510
sI363166
(F0.15248
F1.141
F0.27476
tp1511
sI363167
(F0.15326999999999999
F1.141
F0.16617999999999999
tp1512
sI363168
(F0.0056988999999999998
F1.141
F0.53136000000000005
tp1513
sI363169
(F0.0057407999999999999
F1.141
F0.2923
tp1514
sI363170
(F0.0057164
F1.141
F0.17488999999999999
tp1515
sI363291
(F1.8709
F1
F1
tp1516
sI363292
(F1.8065
F0.91000000000000003
F1
tp1517
sI363293
(F3.6789999999999998
F0.91000000000000003
F1
tp1518
sI363294
(F3.5600999999999998
F0.91000000000000003
F1
tp1519
sI363295
(F2.5947
F0.91000000000000003
F1
tp1520
sI363296
(F2.5034999999999998
F0.91000000000000003
F1
tp1521
sI363297
(F5.0968
F0.91000000000000003
F1
tp1522
sI363298
(F5.4470000000000001
F0.91000000000000003
F1
tp1523
sI363299
(F14.177
F0.91000000000000003
F1
tp1524
sI363300
(F13.762
F0.91000000000000003
F1
tp1525
sI363331
(F20024
F0.97019999999999995
F0.81440000000000001
tp1526
sI363332
(F20028
F0.97019999999999995
F0.1381
tp1527
sI363333
(F20015
F0.97019999999999995
F0.046800000000000001
tp1528
sI363334
(F589.13999999999999
F0.97019999999999995
F0.65739999999999998
tp1529
sI363335
(F590.11000000000001
F0.97019999999999995
F0.2525
tp1530
sI363336
(F589.83000000000004
F0.97019999999999995
F0.085800000000000001
tp1531
sI363337
(F84.219999999999999
F0.97019999999999995
F0.61399999999999999
tp1532
sI363338
(F84.281999999999996
F0.97019999999999995
F0.27589999999999998
tp1533
sI363339
(F84.177000000000007
F0.97019999999999995
F0.10539999999999999
tp1534
sI363340
(F6.0857999999999999
F0.97019999999999995
F0.58440000000000003
tp1535
sI363341
(F6.0651999999999999
F0.97019999999999995
F0.28689999999999999
tp1536
sI363342
(F6.0788000000000002
F0.97019999999999995
F0.1206
tp1537
sI363343
(F0.38105
F0.97019999999999995
F0.56769999999999998
tp1538
sI363344
(F0.37794
F0.97019999999999995
F0.29670000000000002
tp1539
sI363345
(F0.37626999999999999
F0.97019999999999995
F0.13150000000000001
tp1540
sI363346
(F0.073221999999999995
F0.97019999999999995
F0.56140000000000001
tp1541
sI363347
(F0.067962999999999996
F0.97019999999999995
F0.2923
tp1542
sI363348
(F0.067277000000000003
F0.97019999999999995
F0.1449
tp1543
sI363349
(F0.0090285000000000001
F0.97019999999999995
F0.55579999999999996
tp1544
sI363350
(F0.0089116000000000004
F0.97019999999999995
F0.2903
tp1545
sI363351
(F0.0090200000000000002
F0.97019999999999995
F0.14130000000000001
tp1546
sI363352
(F2.6193000000000001e-05
F0.97019999999999995
F0.56059999999999999
tp1547
sI363353
(F3.0985000000000002e-05
F0.97019999999999995
F0.28970000000000001
tp1548
sI363354
(F2.9391999999999999e-05
F0.97019999999999995
F0.1804
tp1549
sI363355
(F15.564
F1
F0.27976000000000001
tp1550
sI363356
(F15.563000000000001
F1
F0.13961000000000001
tp1551
sI363357
(F6.7972999999999999
F1
F1
tp1552
sI363358
(F3.4369999999999998
F1
F1
tp1553
sI363359
(F24.716999999999999
F1
F1
tp1554
sI363360
(F112.73999999999999
F1
F1
tp1555
sI363361
(F2076.5
F0.97509999999999997
F0.81189999999999996
tp1556
sI363362
(F2076.6999999999998
F0.97509999999999997
F0.11899999999999999
tp1557
sI363363
(F2078.8000000000002
F0.97509999999999997
F0.0693
tp1558
sI363364
(F2077
F0.97509999999999997
F0.81100000000000005
tp1559
sI363365
(F2075.9000000000001
F0.97509999999999997
F0.1186
tp1560
sI363366
(F2077.5999999999999
F0.97509999999999997
F0.070400000000000004
tp1561
sI363367
(F71.719999999999999
F0.97509999999999997
F0.66690000000000005
tp1562
sI363368
(F71.742999999999995
F0.97509999999999997
F0.20030000000000001
tp1563
sI363369
(F71.573999999999998
F0.97509999999999997
F0.12759999999999999
tp1564
sI363370
(F11.105
F0.97509999999999997
F0.62580000000000002
tp1565
sI363371
(F11.099
F0.97509999999999997
F0.2225
tp1566
sI363372
(F11.077999999999999
F0.97509999999999997
F0.14419999999999999
tp1567
sI363373
(F0.83396000000000003
F0.97509999999999997
F0.59230000000000005
tp1568
sI363374
(F0.83155000000000001
F0.97509999999999997
F0.24079999999999999
tp1569
sI363375
(F0.83216000000000001
F0.97509999999999997
F0.15229999999999999
tp1570
sI363376
(F0.053137999999999998
F0.97509999999999997
F0.58360000000000001
tp1571
sI363377
(F0.052964999999999998
F0.97509999999999997
F0.25109999999999999
tp1572
sI363378
(F0.053414000000000003
F0.97509999999999997
F0.14699999999999999
tp1573
sI363379
(F0.0095434999999999999
F0.97509999999999997
F0.57640000000000002
tp1574
sI363380
(F0.0095438999999999993
F0.97509999999999997
F0.25480000000000003
tp1575
sI363381
(F0.0095914999999999993
F0.97509999999999997
F0.15989999999999999
tp1576
sI363382
(F0.0012698
F0.97509999999999997
F0.55789999999999995
tp1577
sI363383
(F0.0012528000000000001
F0.97509999999999997
F0.2611
tp1578
sI363384
(F0.0012306000000000001
F0.97509999999999997
F0.15390000000000001
tp1579
sI363385
(F4.4846000000000002e-06
F0.97509999999999997
F0.56059999999999999
tp1580
sI363386
(F5.2027000000000002e-06
F0.97509999999999997
F0.27200000000000002
tp1581
sI363387
(F4.7171000000000001e-06
F0.97509999999999997
F0.14549999999999999
tp1582
sI363388
(F2076.4000000000001
F0.97509999999999997
F0.81069999999999998
tp1583
sI363389
(F2078.5
F0.97509999999999997
F0.1191
tp1584
sI363390
(F2074
F0.97509999999999997
F0.069500000000000006
tp1585
sI363391
(F71.680999999999997
F0.97509999999999997
F0.6694
tp1586
sI363392
(F71.340999999999994
F0.97509999999999997
F0.20200000000000001
tp1587
sI363393
(F71.744
F0.97509999999999997
F0.12670000000000001
tp1588
sI363394
(F11.095000000000001
F0.97509999999999997
F0.62760000000000005
tp1589
sI363395
(F11.051
F0.97509999999999997
F0.22520000000000001
tp1590
sI363396
(F10.952
F0.97509999999999997
F0.14599999999999999
tp1591
sI363397
(F0.83477000000000001
F0.97509999999999997
F0.59850000000000003
tp1592
sI363398
(F0.82909999999999995
F0.97509999999999997
F0.24529999999999999
tp1593
sI363399
(F0.83250999999999997
F0.97509999999999997
F0.1515
tp1594
sI363400
(F0.053180999999999999
F0.97509999999999997
F0.55449999999999999
tp1595
sI363401
(F0.052912000000000001
F0.97509999999999997
F0.25069999999999998
tp1596
sI363402
(F0.052963999999999997
F0.97509999999999997
F0.15429999999999999
tp1597
sI363403
(F0.0096374000000000008
F0.97509999999999997
F0.57620000000000005
tp1598
sI363404
(F0.0094310000000000001
F0.97509999999999997
F0.2611
tp1599
sI363405
(F0.0096256999999999992
F0.97509999999999997
F0.1593
tp1600
sI363406
(F0.0012528999999999999
F0.97509999999999997
F0.57120000000000004
tp1601
sI363407
(F0.0012711000000000001
F0.97509999999999997
F0.26850000000000002
tp1602
sI363408
(F0.0012501999999999999
F0.97509999999999997
F0.15540000000000001
tp1603
sI363409
(F4.9183e-06
F0.97509999999999997
F0.52639999999999998
tp1604
sI363410
(F4.7404999999999998e-06
F0.97509999999999997
F0.26350000000000001
tp1605
sI363411
(F4.6040999999999997e-06
F0.97509999999999997
F0.15559999999999999
tp1606
sI363412
(F11220
F0.9728
F0.81079999999999997
tp1607
sI363413
(F11230
F0.9728
F0.11550000000000001
tp1608
sI363414
(F11215
F0.9728
F0.071300000000000002
tp1609
sI363415
(F403.31
F0.9728
F0.66800000000000004
tp1610
sI363416
(F403.27999999999997
F0.9728
F0.20050000000000001
tp1611
sI363417
(F404.50999999999999
F0.9728
F0.1245
tp1612
sI363418
(F62.127000000000002
F0.9728
F0.62670000000000003
tp1613
sI363419
(F62.100000000000001
F0.9728
F0.2414
tp1614
sI363420
(F62.295000000000002
F0.9728
F0.14480000000000001
tp1615
sI363421
(F4.6311
F0.9728
F0.59850000000000003
tp1616
sI363422
(F4.5967000000000002
F0.9728
F0.2387
tp1617
sI363423
(F4.6176000000000004
F0.9728
F0.15659999999999999
tp1618
sI363424
(F0.29494999999999999
F0.9728
F0.5847
tp1619
sI363425
(F0.28253
F0.9728
F0.25609999999999999
tp1620
sI363426
(F0.28777000000000003
F0.9728
F0.1585
tp1621
sI363427
(F0.049185
F0.9728
F0.57909999999999995
tp1622
sI363428
(F0.050976
F0.9728
F0.26140000000000002
tp1623
sI363429
(F0.051548999999999998
F0.9728
F0.15659999999999999
tp1624
sI363430
(F0.0066325999999999998
F0.9728
F0.56159999999999999
tp1625
sI363431
(F0.0066936000000000001
F0.9728
F0.26279999999999998
tp1626
sI363432
(F0.0063178000000000002
F0.9728
F0.16869999999999999
tp1627
sI363433
(F2.2174000000000001e-05
F0.9728
F0.48370000000000002
tp1628
sI363434
(F2.3947e-05
F0.9728
F0.28449999999999998
tp1629
sI363435
(F2.5242999999999999e-05
F0.9728
F0.1694
tp1630
sI363436
(F20011
F0.97019999999999995
F0.81359999999999999
tp1631
sI363437
(F20033
F0.97019999999999995
F0.1376
tp1632
sI363438
(F20020
F0.97019999999999995
F0.046699999999999998
tp1633
sI363439
(F589.74000000000001
F0.97019999999999995
F0.66020000000000001
tp1634
sI363440
(F590.75
F0.97019999999999995
F0.25319999999999998
tp1635
sI363441
(F590.04999999999995
F0.97019999999999995
F0.086999999999999994
tp1636
sI363442
(F84.067999999999998
F0.97019999999999995
F0.61450000000000005
tp1637
sI363443
(F84.296000000000006
F0.97019999999999995
F0.27660000000000001
tp1638
sI363444
(F83.963999999999999
F0.97019999999999995
F0.1061
tp1639
sI363445
(F6.5041000000000002
F0.97019999999999995
F0.58499999999999996
tp1640
sI363446
(F6.0683999999999996
F0.97019999999999995
F0.2868
tp1641
sI363447
(F6.1502999999999997
F0.97019999999999995
F0.1225
tp1642
sI363448
(F0.38797999999999999
F0.97019999999999995
F0.56669999999999998
tp1643
sI363449
(F0.37958999999999998
F0.97019999999999995
F0.29089999999999999
tp1644
sI363450
(F0.38069999999999998
F0.97019999999999995
F0.13669999999999999
tp1645
sI363451
(F0.068303000000000003
F0.97019999999999995
F0.56000000000000005
tp1646
sI363452
(F0.068516999999999995
F0.97019999999999995
F0.2737
tp1647
sI363453
(F0.068219000000000002
F0.97019999999999995
F0.14249999999999999
tp1648
sI363454
(F0.0089461000000000002
F0.97019999999999995
F0.55169999999999997
tp1649
sI363455
(F0.0088991000000000001
F0.97019999999999995
F0.28899999999999998
tp1650
sI363456
(F0.0088974999999999992
F0.97019999999999995
F0.14879999999999999
tp1651
sI363457
(F2.6342e-05
F0.97019999999999995
F0.48320000000000002
tp1652
sI363458
(F3.2907000000000002e-05
F0.97019999999999995
F0.30730000000000002
tp1653
sI363459
(F2.7767e-05
F0.97019999999999995
F0.1973
tp1654
sI363460
(F20029
F0.97019999999999995
F0.81379999999999997
tp1655
sI363461
(F20015
F0.97019999999999995
F0.13830000000000001
tp1656
sI363462
(F20004
F0.97019999999999995
F0.047
tp1657
sI363463
(F588.03999999999996
F0.97019999999999995
F0.65980000000000005
tp1658
sI363464
(F589.12
F0.97019999999999995
F0.25609999999999999
tp1659
sI363465
(F589.05999999999995
F0.97019999999999995
F0.086699999999999999
tp1660
sI363466
(F84.102000000000004
F0.97019999999999995
F0.61539999999999995
tp1661
sI363467
(F84.191000000000003
F0.97019999999999995
F0.27660000000000001
tp1662
sI363468
(F84.128
F0.97019999999999995
F0.1061
tp1663
sI363469
(F6.0922999999999998
F0.97019999999999995
F0.58169999999999999
tp1664
sI363470
(F6.0796000000000001
F0.97019999999999995
F0.28749999999999998
tp1665
sI363471
(F6.0827999999999998
F0.97019999999999995
F0.1242
tp1666
sI363472
(F0.38167000000000001
F0.97019999999999995
F0.57120000000000004
tp1667
sI363473
(F0.38112000000000001
F0.97019999999999995
F0.28999999999999998
tp1668
sI363474
(F0.38451999999999997
F0.97019999999999995
F0.1368
tp1669
sI363475
(F0.068377999999999994
F0.97019999999999995
F0.55720000000000003
tp1670
sI363476
(F0.067651000000000003
F0.97019999999999995
F0.2898
tp1671
sI363477
(F0.072063000000000002
F0.97019999999999995
F0.13569999999999999
tp1672
sI363478
(F0.0087439000000000006
F0.97019999999999995
F0.54759999999999998
tp1673
sI363479
(F0.0088696999999999995
F0.97019999999999995
F0.28399999999999997
tp1674
sI363480
(F0.0088868999999999997
F0.97019999999999995
F0.15160000000000001
tp1675
sI363481
(F3.1287e-05
F0.97019999999999995
F0.4274
tp1676
sI363482
(F2.5888999999999999e-05
F0.97019999999999995
F0.094100000000000003
tp1677
sI363483
(F2.9071e-05
F0.97019999999999995
F0.13139999999999999
tp1678
sI363484
(F13.43
F0.91000000000000003
F1
tp1679
sI363485
(F12.448
F0.91000000000000003
F1.0004
tp1680
sI363489
(F11.413
F1
F1
tp1681
sI363490
(F1.2557
F1
F1
tp1682
sI363491
(F4.5876999999999999
F1
F1
tp1683
sI363492
(F12.465
F1
F1
tp1684
sI363493
(F3.2273999999999998
F1
F1
tp1685
sI363494
(F0.60153999999999996
F1
F1
tp1686
sI363600
(F16719
F1.20103
F0.83755999999999997
tp1687
sI363601
(F16720
F1.20103
F0.13829
tp1688
sI363602
(F16717
F1.20103
F0.024191000000000001
tp1689
sI363603
(F755.10000000000002
F1.20103
F0.71172000000000002
tp1690
sI363604
(F755.76999999999998
F1.20103
F0.23976
tp1691
sI363605
(F755.73000000000002
F1.20103
F0.048329999999999998
tp1692
sI363606
(F318.95999999999998
F1.20103
F0.66554000000000002
tp1693
sI363607
(F319.93000000000001
F1.20103
F0.26354
tp1694
sI363608
(F319.44999999999999
F1.20103
F0.069422999999999999
tp1695
sI363609
(F73.528000000000006
F1.20103
F0.61902999999999997
tp1696
sI363610
(F73.561999999999998
F1.20103
F0.28523999999999999
tp1697
sI363611
(F73.555999999999997
F1.20103
F0.095211000000000004
tp1698
sI363612
(F11.529
F1.20103
F0.58679999999999999
tp1699
sI363613
(F11.516999999999999
F1.20103
F0.29823
tp1700
sI363614
(F11.51
F1.20103
F0.11526
tp1701
sI363615
(F4.0157999999999996
F1.20103
F0.56645000000000001
tp1702
sI363616
(F4.0140000000000002
F1.20103
F0.30425000000000002
tp1703
sI363617
(F4.0122999999999998
F1.20103
F0.12837000000000001
tp1704
sI363618
(F1.3243
F1.20103
F0.54796999999999996
tp1705
sI363619
(F1.3286
F1.20103
F0.30759999999999998
tp1706
sI363620
(F1.3260000000000001
F1.20103
F0.1426
tp1707
sI363621
(F0.042293999999999998
F1.20103
F0.52444999999999997
tp1708
sI363622
(F0.041883999999999998
F1.20103
F0.31678000000000001
tp1709
sI363623
(F0.042563999999999998
F1.20103
F0.15795999999999999
tp1710
sI363624
(F16720
F1.20103
F0.83755000000000002
tp1711
sI363625
(F16717
F1.20103
F0.13835
tp1712
sI363626
(F16719
F1.20103
F0.024198999999999998
tp1713
sI363627
(F755.19000000000005
F1.20103
F0.71182000000000001
tp1714
sI363628
(F755.62
F1.20103
F0.23985999999999999
tp1715
sI363629
(F755.76999999999998
F1.20103
F0.048328000000000003
tp1716
sI363630
(F318.82999999999998
F1.20103
F0.66549999999999998
tp1717
sI363631
(F319.88999999999999
F1.20103
F0.26394000000000001
tp1718
sI363632
(F319.41000000000003
F1.20103
F0.069436999999999999
tp1719
sI363633
(F73.584999999999994
F1.20103
F0.61863000000000001
tp1720
sI363634
(F73.548000000000002
F1.20103
F0.28511999999999998
tp1721
sI363635
(F73.569000000000003
F1.20103
F0.095190999999999998
tp1722
sI363636
(F11.522
F1.20103
F0.58643000000000001
tp1723
sI363637
(F11.523999999999999
F1.20103
F0.29644999999999999
tp1724
sI363638
(F11.522
F1.20103
F0.11565
tp1725
sI363639
(F4.0194000000000001
F1.20103
F0.56681999999999999
tp1726
sI363640
(F4.0251999999999999
F1.20103
F0.30485000000000001
tp1727
sI363641
(F4.0138999999999996
F1.20103
F0.12845000000000001
tp1728
sI363642
(F1.3262
F1.20103
F0.54537000000000002
tp1729
sI363643
(F1.3214999999999999
F1.20103
F0.30792000000000003
tp1730
sI363644
(F1.3287
F1.20103
F0.14358000000000001
tp1731
sI363645
(F0.041696999999999998
F1.20103
F0.51966000000000001
tp1732
sI363646
(F0.042199
F1.20103
F0.31695000000000001
tp1733
sI363647
(F0.042049000000000003
F1.20103
F0.15886
tp1734
sI363648
(F16702
F1.20103
F0.83753999999999995
tp1735
sI363649
(F16702
F1.20103
F0.13832
tp1736
sI363650
(F16702
F1.20103
F0.024191000000000001
tp1737
sI363651
(F754.90999999999997
F1.20103
F0.71220000000000006
tp1738
sI363652
(F755.29999999999995
F1.20103
F0.23927000000000001
tp1739
sI363653
(F755.13999999999999
F1.20103
F0.048464
tp1740
sI363654
(F315.31
F1.20103
F0.66715999999999998
tp1741
sI363655
(F316.05000000000001
F1.20103
F0.26368999999999998
tp1742
sI363656
(F315.63999999999999
F1.20103
F0.069268999999999997
tp1743
sI363657
(F72.275000000000006
F1.20103
F0.62207000000000001
tp1744
sI363658
(F72.189999999999998
F1.20103
F0.28470000000000001
tp1745
sI363659
(F72.225999999999999
F1.20103
F0.095212000000000005
tp1746
sI363660
(F11.44
F1.20103
F0.58825000000000005
tp1747
sI363661
(F11.462999999999999
F1.20103
F0.29713000000000001
tp1748
sI363662
(F11.459
F1.20103
F0.11623
tp1749
sI363663
(F4.0265000000000004
F1.20103
F0.56735000000000002
tp1750
sI363664
(F4.0270000000000001
F1.20103
F0.30313000000000001
tp1751
sI363665
(F4.0282999999999998
F1.20103
F0.12992000000000001
tp1752
sI363666
(F1.3264
F1.20103
F0.54581999999999997
tp1753
sI363667
(F1.3205
F1.20103
F0.31191999999999998
tp1754
sI363668
(F1.3222
F1.20103
F0.14277000000000001
tp1755
sI363669
(F0.043500999999999998
F1.20103
F0.52087000000000006
tp1756
sI363670
(F0.042721000000000002
F1.20103
F0.31794
tp1757
sI363671
(F0.042682999999999999
F1.20103
F0.16552
tp1758
sI363725
(F2813.3000000000002
F1.141
F0.88800000000000001
tp1759
sI363726
(F2816.3000000000002
F1.141
F0.084626999999999994
tp1760
sI363727
(F2816
F1.141
F0.027286000000000001
tp1761
sI363728
(F25.846
F1.141
F0.66713999999999996
tp1762
sI363729
(F25.920999999999999
F1.141
F0.25195000000000001
tp1763
sI363730
(F25.93
F1.141
F0.080668000000000004
tp1764
sI363731
(F9.2576000000000001
F1.141
F0.63482000000000005
tp1765
sI363732
(F9.2749000000000006
F1.141
F0.26723999999999998
tp1766
sI363733
(F9.3176000000000005
F1.141
F0.10002
tp1767
sI363734
(F1.8342000000000001
F1.141
F0.59635000000000005
tp1768
sI363735
(F1.8652
F1.141
F0.28266000000000002
tp1769
sI363736
(F1.8406
F1.141
F0.12280000000000001
tp1770
sI363737
(F0.24335999999999999
F1.141
F0.57440000000000002
tp1771
sI363738
(F0.24364
F1.141
F0.29329
tp1772
sI363739
(F0.24368999999999999
F1.141
F0.13905000000000001
tp1773
sI363740
(F0.075079000000000007
F1.141
F0.55118999999999996
tp1774
sI363741
(F0.074079999999999993
F1.141
F0.29500999999999999
tp1775
sI363742
(F0.074098999999999998
F1.141
F0.14924000000000001
tp1776
sI363743
(F0.020212999999999998
F1.141
F0.54261999999999999
tp1777
sI363744
(F0.019990999999999998
F1.141
F0.29844999999999999
tp1778
sI363745
(F0.020136000000000001
F1.141
F0.15648000000000001
tp1779
sI363746
(F0.00035612000000000003
F1.141
F0.50990000000000002
tp1780
sI363747
(F0.00036063000000000002
F1.141
F0.30357000000000001
tp1781
sI363748
(F0.00038109
F1.141
F0.17244999999999999
tp1782
sI410155
(F0.54830000000000001
F1.1000000000000001
F1
tp1783
sI410156
(F0.15498999999999999
F1.1100000000000001
F1
tp1784
sI410157
(F0.52771000000000001
F1.1100000000000001
F1
tp1785
sI410159
(F679.75999999999999
F1.22360833235
F0.54393000000000002
tp1786
sI410160
(F679.12
F1.224761456
F0.45589000000000002
tp1787
sI361012
(F1.0367e-06
F1
F0.00042502000000000002
tp1788
sI363845
(F2135.6999999999998
F1
F1
tp1789
sI363846
(F2136.4000000000001
F1
F1
tp1790
sI361023
(F26454000
F1
F0.00031953
tp1791
sI361024
(F254630
F1
F0.00053008999999999999
tp1792
sI361026
(F257.52999999999997
F1
F0.00094016
tp1793
sI361027
(F16.215
F1
F0.00039282
tp1794
sI361029
(F0.019639
F1
F0.012054
tp1795
sI361030
(F0.0011961999999999999
F1
F0.0058935000000000003
tp1796
sI364100
(F1983
F0.97509999999999997
F0.82210000000000005
tp1797
sI364101
(F1978.4000000000001
F0.97509999999999997
F0.11308
tp1798
sI364102
(F1982.2
F0.97509999999999997
F0.064160999999999996
tp1799
sI364103
(F108.92
F0.97509999999999997
F0.68872999999999995
tp1800
sI364104
(F109.42
F0.97509999999999997
F0.18595999999999999
tp1801
sI364105
(F108.91
F0.97509999999999997
F0.11375
tp1802
sI364106
(F39.878
F0.97509999999999997
F0.60899000000000003
tp1803
sI364107
(F39.795000000000002
F0.97509999999999997
F0.23308000000000001
tp1804
sI364108
(F39.908000000000001
F0.97509999999999997
F0.14618
tp1805
sI364109
(F8.5374999999999996
F0.97509999999999997
F0.55906
tp1806
sI364110
(F8.5403000000000002
F0.97509999999999997
F0.26528000000000002
tp1807
sI364111
(F8.4931999999999999
F0.97509999999999997
F0.17559
tp1808
sI364112
(F1.7881
F0.97509999999999997
F1
tp1809
sI364113
(F0.14768999999999999
F0.97509999999999997
F1
tp1810
sI364114
(F1981.8
F0.97509999999999997
F0.82106000000000001
tp1811
sI364115
(F1980.8
F0.97509999999999997
F0.11294999999999999
tp1812
sI364116
(F1981.7
F0.97509999999999997
F0.063809000000000005
tp1813
sI364117
(F110.5
F0.97509999999999997
F0.69042999999999999
tp1814
sI364118
(F110.63
F0.97509999999999997
F0.18382000000000001
tp1815
sI364119
(F110.31
F0.97509999999999997
F0.11443
tp1816
sI364120
(F40.731000000000002
F0.97509999999999997
F0.61451999999999996
tp1817
sI364121
(F40.670000000000002
F0.97509999999999997
F0.23044000000000001
tp1818
sI364122
(F40.643000000000001
F0.97509999999999997
F0.14965999999999999
tp1819
sI364123
(F8.6743000000000006
F0.97509999999999997
F0.56133999999999995
tp1820
sI364124
(F8.6710999999999991
F0.97509999999999997
F0.26294000000000001
tp1821
sI364125
(F8.6766000000000005
F0.97509999999999997
F0.17222999999999999
tp1822
sI364126
(F1.8081
F0.97509999999999997
F1
tp1823
sI364127
(F0.14857000000000001
F0.97509999999999997
F1
tp1824
sI364128
(F1981.5999999999999
F0.97509999999999997
F0.82142000000000004
tp1825
sI364129
(F1978.8
F0.97509999999999997
F0.11314
tp1826
sI364130
(F1981.8
F0.97509999999999997
F0.064452999999999996
tp1827
sI364131
(F110.37
F0.97509999999999997
F0.68883000000000005
tp1828
sI364132
(F110.51000000000001
F0.97509999999999997
F0.18290000000000001
tp1829
sI364133
(F110.87
F0.97509999999999997
F0.110886
tp1830
sI364134
(F40.780999999999999
F0.97509999999999997
F0.60821000000000003
tp1831
sI364135
(F40.740000000000002
F0.97509999999999997
F0.22897000000000001
tp1832
sI364136
(F40.761000000000003
F0.97509999999999997
F0.13442000000000001
tp1833
sI364137
(F8.5502000000000002
F0.97509999999999997
F0.56035999999999997
tp1834
sI364138
(F8.6707000000000001
F0.97509999999999997
F0.26245000000000002
tp1835
sI364139
(F8.6804000000000006
F0.97509999999999997
F0.17313000000000001
tp1836
sI364140
(F1.8096000000000001
F0.97509999999999997
F1
tp1837
sI364141
(F0.14834
F0.97509999999999997
F1
tp1838
sI364142
(F10700
F0.9728
F0.8216
tp1839
sI364143
(F10702
F0.9728
F0.11123
tp1840
sI364144
(F10709
F0.9728
F0.066174999999999998
tp1841
sI364145
(F603.23000000000002
F0.9728
F0.68923999999999996
tp1842
sI364146
(F608.14999999999998
F0.9728
F0.18243000000000001
tp1843
sI364147
(F603.32000000000005
F0.9728
F0.11955
tp1844
sI364148
(F222.28
F0.9728
F0.60734999999999995
tp1845
sI364149
(F221.88
F0.9728
F0.22527
tp1846
sI364150
(F222.47
F0.9728
F0.15185000000000001
tp1847
sI364151
(F47.375
F0.9728
F0.55886999999999998
tp1848
sI364152
(F47.396999999999998
F0.9728
F0.26201000000000002
tp1849
sI364153
(F47.475999999999999
F0.9728
F0.17513999999999999
tp1850
sI364154
(F9.9099000000000004
F0.9728
F1
tp1851
sI364155
(F0.81808999999999998
F0.9728
F1
tp1852
sI364156
(F19143
F0.97019999999999995
F0.82379999999999998
tp1853
sI364157
(F19121
F0.97019999999999995
F0.13039999999999999
tp1854
sI364158
(F19135
F0.97019999999999995
F0.044117999999999997
tp1855
sI364159
(F944.85000000000002
F0.97019999999999995
F0.67462999999999995
tp1856
sI364160
(F937.77999999999997
F0.97019999999999995
F0.23455999999999999
tp1857
sI364161
(F944.63
F0.97019999999999995
F0.075648000000000007
tp1858
sI364162
(F339.54000000000002
F0.97019999999999995
F0.62600999999999996
tp1859
sI364163
(F340.06
F0.97019999999999995
F0.28947000000000001
tp1860
sI364164
(F339.54000000000002
F0.97019999999999995
F0.10872
tp1861
sI364165
(F72.066999999999993
F0.97019999999999995
F0.54647000000000001
tp1862
sI364166
(F72.197999999999993
F0.97019999999999995
F0.31742999999999999
tp1863
sI364167
(F72.045000000000002
F0.97019999999999995
F0.13336999999999999
tp1864
sI364168
(F15.01
F0.97019999999999995
F1
tp1865
sI364169
(F1.2343999999999999
F0.97019999999999995
F1
tp1866
sI364170
(F19127
F0.97019999999999995
F0.82447000000000004
tp1867
sI364171
(F19130
F0.97019999999999995
F0.1303
tp1868
sI364172
(F19135
F0.97019999999999995
F0.044141
tp1869
sI364173
(F942.58000000000004
F0.97019999999999995
F0.66871999999999998
tp1870
sI364174
(F945.66999999999996
F0.97019999999999995
F0.22786999999999999
tp1871
sI364175
(F945.14999999999998
F0.97019999999999995
F0.10341
tp1872
sI364176
(F339.81
F0.97019999999999995
F0.59691000000000005
tp1873
sI364177
(F339.87
F0.97019999999999995
F0.28965000000000002
tp1874
sI364178
(F339.48000000000002
F0.97019999999999995
F0.10897999999999999
tp1875
sI364179
(F72.084000000000003
F0.97019999999999995
F0.54440999999999995
tp1876
sI364180
(F72.128
F0.97019999999999995
F0.31674999999999998
tp1877
sI364181
(F72.113
F0.97019999999999995
F0.13391
tp1878
sI364182
(F15.224
F0.97019999999999995
F1
tp1879
sI364183
(F1.2334000000000001
F0.97019999999999995
F1
tp1880
sI364184
(F19152
F0.97019999999999995
F0.82494999999999996
tp1881
sI364185
(F19153
F0.97019999999999995
F0.12934000000000001
tp1882
sI364186
(F19163
F0.97019999999999995
F0.044594000000000002
tp1883
sI364187
(F947.64999999999998
F0.97019999999999995
F0.67381999999999997
tp1884
sI364188
(F946.73000000000002
F0.97019999999999995
F0.22222
tp1885
sI364189
(F943.29999999999995
F0.97019999999999995
F0.10396
tp1886
sI364190
(F339.36000000000001
F0.97019999999999995
F0.59621999999999997
tp1887
sI364191
(F339.63
F0.97019999999999995
F0.29025000000000001
tp1888
sI364192
(F339.54000000000002
F0.97019999999999995
F0.11799
tp1889
sI364193
(F72.064999999999998
F0.92020000000000002
F0.54569000000000001
tp1890
sI364194
(F71.975999999999999
F0.97019999999999995
F0.31647999999999998
tp1891
sI364195
(F72.025999999999996
F0.97019999999999995
F0.13425999999999999
tp1892
sI364196
(F15.045999999999999
F0.97019999999999995
F1
tp1893
sI364197
(F1.2339
F0.97019999999999995
F1
tp1894
sI364198
(F2413.6999999999998
F0.97509999999999997
F0.96540000000000004
tp1895
sI364199
(F2414.6999999999998
F0.97509999999999997
F0.034064999999999998
tp1896
sI364200
(F50.317999999999998
F0.97509999999999997
F0.89190999999999998
tp1897
sI364201
(F50.284999999999997
F0.97509999999999997
F0.10172
tp1898
sI364202
(F3.2355
F0.97509999999999997
F0.85297000000000001
tp1899
sI364203
(F3.2799999999999998
F0.97509999999999997
F0.14394999999999999
tp1900
sI364204
(F2415.6999999999998
F0.97509999999999997
F0.96503000000000005
tp1901
sI364205
(F2416.9000000000001
F0.97509999999999997
F0.033661999999999997
tp1902
sI364206
(F50.456000000000003
F0.97509999999999997
F0.89129999999999998
tp1903
sI364207
(F50.427
F0.97509999999999997
F0.1087
tp1904
sI364208
(F3.2538
F0.97509999999999997
F0.85358999999999996
tp1905
sI364209
(F3.2519
F0.97509999999999997
F0.14548
tp1906
sI364210
(F2417.9000000000001
F0.97509999999999997
F0.96526999999999996
tp1907
sI364211
(F2414.1999999999998
F0.97509999999999997
F0.033593999999999999
tp1908
sI364212
(F50.369999999999997
F0.97509999999999997
F0.89015
tp1909
sI364213
(F50.439999999999998
F0.97509999999999997
F0.10985
tp1910
sI364214
(F3.2833999999999999
F0.97509999999999997
F0.85080999999999996
tp1911
sI364215
(F3.2787999999999999
F0.97509999999999997
F0.14326
tp1912
sI361080
(F0.050798000000000003
F0.91000000000000003
F1
tp1913
sI361097
(F16.431999999999999
F0.91000000000000003
F0.28206999999999999
tp1914
sI361100
(F11306
F1.0172399999999999
F1
tp1915
sI341429
(F0.0019265199999999999
F1.0713489387399999
F1
tp1916
sI341000
(F0.068815000000000001
F1.4551719568000001
F1
tp1917
sI341001
(F0.0087260199999999993
F0.97930602006699996
F1
tp1918
sI341003
(F1
F1
F1
tp1919
sI341067
(F0.0025297000000000002
F1.2437838478900001
F1
tp1920
sI341068
(F0.0013787999999999999
F1.43798085292
F1
tp1921
sI341069
(F0.00091821999999999997
F1.26263858335
F1
tp1922
sI341079
(F0.990209004768
F1
F0.49149999999999999
tp1923
sI341080
(F0.084843009878400003
F1
F0.51024999999999998
tp1924
sI341081
(F0.00115938
F1
F1
tp1925
sI341100
(F0.20533000000000001
F1.25878340233
F1
tp1926
sI341101
(F0.069325999999999999
F1.4475354123999999
F1
tp1927
sI341102
(F0.034769000000000001
F1.4572649203600001
F1
tp1928
sI341122
(F1.9081300000000001
F1.4546899841000001
F0.12277
tp1929
sI341123
(F1.9081999999999999
F1.45464180439
F0.45479999999999998
tp1930
sI341124
(F1.9081999999999999
F1.45464180439
F0.42193999999999998
tp1931
sI341155
(F0.242012
F0.978768965607
F0.12271
tp1932
sI341156
(F0.242012
F0.978768965607
F0.45539000000000002
tp1933
sI341157
(F0.242012
F0.978768965607
F0.42191000000000001
tp1934
sI341177
(F0.50849999999999995
F1
F0.10553999999999999
tp1935
sI341178
(F0.033189000000000003
F1.0119136335700001
F1
tp1936
sI423099
(F172340000000
F1
F3.1739999999999998e-05
tp1937
sI423100
(F16715000000
F1
F2.8581999999999998e-05
tp1938
sI423101
(F1396500000
F1
F2.4961e-05
tp1939
sI423102
(F379540000
F1
F2.6616000000000001e-05
tp1940
sI423103
(F106210000
F1
F3.9048999999999998e-05
tp1941
sI423104
(F6704600
F1
F4.8927000000000001e-05
tp1942
sI423105
(F344260
F1
F5.6152e-05
tp1943
sI423106
(F23729
F1
F5.2445999999999999e-05
tp1944
sI423107
(F2286.9000000000001
F1
F3.4993999999999997e-05
tp1945
sI423110
(F3.3279999999999998
F1
F3.3896000000000002e-05
tp1946
sI423111
(F0.32500000000000001
F1
F2.9921e-05
tp1947
sI341195
(F0.00661227
F1.45464180439
F1
tp1948
sI341206
(F0.00085250099999999997
F0.96282785727099995
F1
tp1949
sI407169
(F59.975000000000001
F1
F0.61412999999999995
tp1950
sI341225
(F1.9081999999999999
F1.45464180439
F0.39394000000000001
tp1951
sI341254
(F0.241949
F0.97902463234299997
F0.41699000000000003
tp1952
sI341270
(F0.50849999999999995
F1
F0.43929000000000001
tp1953
sI341271
(F0.50849999999999995
F1
F0.45517000000000002
tp1954
sI410500
(F730.27999999999997
F1.139
F0.54300000000000004
tp1955
sI410501
(F730.16999999999996
F1.1391
F0.54300000000000004
tp1956
sI410502
(F249.81
F1.522
F1
tp1957
sI410503
(F76.932000000000002
F1.139
F1
tp1958
sI304014
(F0.00164
F1
F1
tp1959
sI361073
(F0.020743000000000001
F1.5469999999999999
F1
tp1960
sI361359
(F5.7491000000000003
F0.99912999999999996
F0.132548
tp1961
sI361360
(F0.34510000000000002
F0.99912999999999996
F0.62886200000000003
tp1962
sI361361
(F0.35371999999999998
F0.99912999999999996
F0.230541
tp1963
sI361362
(F0.34667999999999999
F0.99912999999999996
F0.15945300000000001
tp1964
sI361363
(F0.060864000000000001
F0.99912999999999996
F0.62739299999999998
tp1965
sI361364
(F0.060497000000000002
F0.99912999999999996
F0.22003500000000001
tp1966
sI361365
(F0.060692999999999997
F0.99912999999999996
F0.155527
tp1967
sI423300
(F2433900000
F1
F0.074193999999999996
tp1968
sI423301
(F727810000
F1
F0.098167000000000004
tp1969
sI423302
(F134360000
F1
F0.14344000000000001
tp1970
sI423303
(F33855000
F1
F0.17996999999999999
tp1971
sI341435
(F0.00192666
F1.07127335768
F1
tp1972
sI341421
(F0.00133518
F0.98755106470599996
F1
tp1973
sI341422
(F0.0126067
F0.99265420906500001
F0.43720999999999999
tp1974
sI410525
(F730.15999999999997
F1.1391
F0.54386000000000001
tp1975
sI341424
(F0.012663900000000001
F0.98817140679000004
F0.43691000000000002
tp1976
sI341425
(F0.0081733900000000009
F1.00700027987
F1
tp1977
sI341426
(F0.077408599999999994
F1.00912593317
F0.43637999999999999
tp1978
sI341427
(F0.0011925900000000001
F1.1056182392
F1
tp1979
sI341428
(F0.011326599999999999
F1.10484173347
F0.43881999999999999
tp1980
sI410526
(F249.81
F1.522
F1
tp1981
sI341430
(F0.0182954
F1.07069425697
F0.43564999999999998
tp1982
sI341431
(F0.0019265199999999999
F1.0713489387399999
F1
tp1983
sI341432
(F0.018283799999999999
F1.0713741348000001
F0.43778
tp1984
sI341433
(F0.0120213
F1.07173387672
F1
tp1985
sI341434
(F0.11404
F1.0722188059
F0.43908999999999998
tp1986
sI410527
(F76.929000000000002
F1.139
F1
tp1987
sI341436
(F0.018297600000000001
F1.07056844836
F0.43823000000000001
tp1988
sI341445
(F0.0046943599999999999
F1.45493093053
F1
tp1989
sI341446
(F0.00059569400000000002
F0.97843679841300002
F1
tp1990
sI341447
(F0.00017830999999999999
F1.2035370758799999
F1
tp1991
sI341448
(F4.6193000000000003e-05
F1.7118703743000001
F1
tp1992
sI341454
(F0.024673
F1
F0.43680999999999998
tp1993
sI341463
(F0.00097070999999999995
F1.3795922572099999
F0.10045999999999999
tp1994
sI341471
(F0.0081265999999999994
F1.45488273486
F1
tp1995
sI407009
(F696.22000000000003
F1.1949000000000001
F0.022921
tp1996
sI407010
(F696.22000000000003
F1.1949000000000001
F0.003204335
tp1997
sI407011
(F696.23000000000002
F1.1949000000000001
F0.00056523399999999996
tp1998
sI407012
(F696.22000000000003
F1.1949000000000001
F0.0092194749999999995
tp1999
sI407013
(F28.573
F1
F0.31524000000000002
tp2000
sI407018
(F34.009
F1.054
F0.088461200000000004
tp2001
sI407019
(F34.009
F1.054
F0.011282500000000001
tp2002
sI407020
(F33.988999999999997
F1.054
F0.088415199999999999
tp2003
sI407021
(F33.988999999999997
F1.054
F0.011259099999999999
tp2004
sI407022
(F0.0055474000000000001
F1
F1
tp2005
sI407023
(F0.0056071999999999997
F1
F1
tp2006
sI407024
(F0.0056490999999999998
F1
F1
tp2007
sI407025
(F0.0018851
F1
F1
tp2008
sI407026
(F0.0019001000000000001
F1
F1
tp2009
sI407027
(F0.0018948999999999999
F1
F1
tp2010
sI407028
(F0.0027702
F1
F1
tp2011
sI407029
(F784
F1.0610999999999999
F0.025894
tp2012
sI407030
(F784
F1.0610999999999999
F0.0039626000000000001
tp2013
sI407031
(F784
F1.0610999999999999
F0.00074972999999999999
tp2014
sI407032
(F784
F1.0610999999999999
F0.0094391000000000006
tp2015
sI407033
(F611.11000000000001
F1.3611
F0.021578
tp2016
sI407034
(F611
F1.3611
F0.0027242999999999998
tp2017
sI407035
(F611
F1.3611
F0.00044052000000000002
tp2018
sI407036
(F611
F1.3611
F0.0091213000000000006
tp2019
sI407037
(F696
F1.1944999999999999
F0.021021000000000001
tp2020
sI407038
(F696
F1.1944999999999999
F0.0029196000000000001
tp2021
sI407039
(F696
F1.1944999999999999
F0.00051141000000000001
tp2022
sI407040
(F696
F1.1944999999999999
F0.0077710000000000001
tp2023
sI407041
(F696.47000000000003
F1.1942999999999999
F0.025503000000000001
tp2024
sI407042
(F696
F1.1942999999999999
F0.0037897
tp2025
sI407043
(F696
F1.1942999999999999
F0.00070564
tp2026
sI407044
(F696
F1.1942999999999999
F0.0092429999999999995
tp2027
sI407045
(F710.80999999999995
F1.1701999999999999
F0.00029095999999999999
tp2028
sI407046
(F710.75999999999999
F1.1701999999999999
F0.0023969
tp2029
sI407047
(F710.82000000000005
F1.1701999999999999
F0.024237000000000002
tp2030
sI407048
(F710.76999999999998
F1.1701999999999999
F0.0089215000000000006
tp2031
sI407049
(F32.405999999999999
F1.054
F0.060304000000000003
tp2032
sI407050
(F34.915999999999997
F1.0269999999999999
F0.090648999999999993
tp2033
sI407051
(F33.409999999999997
F1.073
F0.085875999999999994
tp2034
sI407052
(F32.408000000000001
F1.054
F0.0071060000000000003
tp2035
sI407053
(F34.915999999999997
F1.0269999999999999
F0.011856999999999999
tp2036
sI407054
(F33.409999999999997
F1.073
F0.010723
tp2037
sI407055
(F32.381
F1.054
F0.060079
tp2038
sI407056
(F34.895000000000003
F1.0269999999999999
F0.090545
tp2039
sI407057
(F33.390999999999998
F1.073
F0.085822999999999997
tp2040
sI407058
(F32.396000000000001
F1.054
F0.0070390000000000001
tp2041
sI407059
(F34.895000000000003
F1.0269999999999999
F0.011787000000000001
tp2042
sI407060
(F33.392000000000003
F1.073
F0.010684000000000001
tp2043
sI407061
(F34.078000000000003
F1.054
F0.080635999999999999
tp2044
sI407062
(F34.079999999999998
F1.054
F0.010182
tp2045
sI407063
(F34.061999999999998
F1.054
F0.081134999999999999
tp2046
sI407064
(F34.064
F1.054
F0.010215999999999999
tp2047
sI341529
(F1
F1
F1
tp2048
sI341530
(F1
F1
F1
tp2049
sI341531
(F1
F1
F1
tp2050
sI341532
(F1
F1
F1
tp2051
sI341533
(F1
F1
F1
tp2052
sI341534
(F1
F1
F1
tp2053
sI341535
(F1
F1
F1
tp2054
sI341536
(F1
F1
F1
tp2055
sI341537
(F1
F1
F1
tp2056
sI341538
(F1
F1
F1
tp2057
sI341539
(F1
F1
F1
tp2058
sI341540
(F1
F1
F1
tp2059
sI407084
(F277.19999999999999
F1.1240000000000001
F0.019871
tp2060
sI407085
(F75.887
F1.1240000000000001
F0.012694
tp2061
sI407086
(F21.561
F1.1240000000000001
F0.048222000000000001
tp2062
sI407087
(F6.157
F1.1240000000000001
F0.14362
tp2063
sI407088
(F2.4861
F1.1240000000000001
F0.38944000000000001
tp2064
sI407089
(F277.17000000000002
F1.1240000000000001
F0.020308
tp2065
sI407090
(F75.796000000000006
F1.1240000000000001
F0.012859000000000001
tp2066
sI407091
(F21.539999999999999
F1.1240000000000001
F0.048978000000000001
tp2067
sI407092
(F6.1684000000000001
F1.1240000000000001
F0.14598
tp2068
sI407093
(F2.4670999999999998
F1.1240000000000001
F0.39245000000000002
tp2069
sI407100
(F2015.8
F1
F0.76987000000000005
tp2070
sI407101
(F2015.5
F1
F0.14308999999999999
tp2071
sI407102
(F2015.2
F1
F0.086400000000000005
tp2072
sI407103
(F67.272999999999996
F1
F0.63534999999999997
tp2073
sI407104
(F67.274000000000001
F1
F0.22539999999999999
tp2074
sI407105
(F67.356999999999999
F1
F0.13930999999999999
tp2075
sI407106
(F10.669
F1
F0.61372000000000004
tp2076
sI407107
(F10.644
F1
F0.23973
tp2077
sI407108
(F10.641999999999999
F1
F0.14571999999999999
tp2078
sI407109
(F0.78024000000000004
F1
F0.59131
tp2079
sI407110
(F0.77751999999999999
F1
F0.25719999999999998
tp2080
sI407111
(F0.77903
F1
F0.15110000000000001
tp2081
sI407112
(F0.048576000000000001
F1
F0.57328000000000001
tp2082
sI407113
(F0.048758999999999997
F1
F0.26979999999999998
tp2083
sI407114
(F0.048644
F1
F0.15608
tp2084
sI407115
(F0.0087722000000000008
F1
F0.56076999999999999
tp2085
sI407116
(F0.0087417999999999992
F1
F0.27605000000000002
tp2086
sI407117
(F0.0087399999999999995
F1
F0.16008
tp2087
sI407118
(F0.0011849
F1
F0.55239000000000005
tp2088
sI407119
(F0.0011946000000000001
F1
F0.28577000000000002
tp2089
sI407120
(F0.0011871
F1
F0.16385
tp2090
sI407121
(F2015.4000000000001
F1
F0.76956999999999998
tp2091
sI407122
(F2014.5
F1
F0.14305000000000001
tp2092
sI407123
(F2015.2
F1
F0.086330000000000004
tp2093
sI407124
(F67.328000000000003
F1
F0.63490999999999997
tp2094
sI407125
(F67.337999999999994
F1
F0.22511999999999999
tp2095
sI407126
(F67.322999999999993
F1
F0.13944000000000001
tp2096
sI407127
(F10.654999999999999
F1
F0.61346999999999996
tp2097
sI407128
(F10.651
F1
F0.24204000000000001
tp2098
sI407129
(F10.657999999999999
F1
F0.14510000000000001
tp2099
sI407130
(F0.77951000000000004
F1
F0.59045000000000003
tp2100
sI407131
(F0.77730999999999995
F1
F0.25730999999999998
tp2101
sI407132
(F0.77937000000000001
F1
F0.15126000000000001
tp2102
sI407133
(F0.048751999999999997
F1
F0.57287999999999994
tp2103
sI407134
(F0.048568
F1
F0.27056999999999998
tp2104
sI407135
(F0.048645000000000001
F1
F0.15689
tp2105
sI407136
(F0.0087842000000000007
F1
F0.56103999999999998
tp2106
sI407137
(F0.0087927999999999999
F1
F0.27877000000000002
tp2107
sI407138
(F0.0087889999999999999
F1
F0.15840000000000001
tp2108
sI407139
(F0.0011822
F1
F0.55359999999999998
tp2109
sI407140
(F0.0011869000000000001
F1
F0.29025000000000001
tp2110
sI407141
(F0.0011846999999999999
F1
F0.16236
tp2111
sI407142
(F2015.2
F1
F0.76927000000000001
tp2112
sI407143
(F2015.4000000000001
F1
F0.14313000000000001
tp2113
sI407144
(F2015.0999999999999
F1
F0.086389999999999995
tp2114
sI407145
(F67.307000000000002
F1
F0.63571
tp2115
sI407146
(F67.388000000000005
F1
F0.22553999999999999
tp2116
sI407147
(F67.331000000000003
F1
F0.13889000000000001
tp2117
sI407148
(F10.638999999999999
F1
F0.61363999999999996
tp2118
sI407149
(F10.628
F1
F0.24063999999999999
tp2119
sI407150
(F10.637
F1
F0.14494000000000001
tp2120
sI407151
(F0.78052999999999995
F1
F0.59062000000000003
tp2121
sI407152
(F0.77827000000000002
F1
F0.25729000000000002
tp2122
sI407153
(F0.77905999999999997
F1
F0.15090999999999999
tp2123
sI407154
(F0.048623
F1
F0.57269999999999999
tp2124
sI407155
(F0.048541000000000001
F1
F0.27016000000000001
tp2125
sI407156
(F0.048654999999999997
F1
F0.15639
tp2126
sI407157
(F0.0087770999999999995
F1
F0.56491000000000002
tp2127
sI407158
(F0.0087823999999999992
F1
F0.27657999999999999
tp2128
sI407159
(F0.0087691999999999996
F1
F0.15973000000000001
tp2129
sI407160
(F0.0011815
F1
F0.55311999999999995
tp2130
sI407161
(F0.0011933
F1
F0.28704000000000002
tp2131
sI407162
(F0.0011846999999999999
F1
F0.16420000000000001
tp2132
sI407163
(F10919
F1
F0.76937999999999995
tp2133
sI407164
(F10918
F1
F0.14136000000000001
tp2134
sI407165
(F10919
F1
F0.088289999999999993
tp2135
sI407166
(F378.85000000000002
F1
F0.63549
tp2136
sI407167
(F379.02999999999997
F1
F0.22287000000000001
tp2137
sI407168
(F378.98000000000002
F1
F0.14063000000000001
tp2138
sI361408
(F0.046280000000000002
F0.99131999999999998
F0.56637199999999999
tp2139
sI407170
(F60.034999999999997
F1
F0.23971999999999999
tp2140
sI407171
(F60.039999999999999
F1
F0.14610999999999999
tp2141
sI407172
(F4.3501000000000003
F1
F0.59165000000000001
tp2142
sI407173
(F4.3551000000000002
F1
F0.25614999999999999
tp2143
sI407174
(F4.3544
F1
F0.1522
tp2144
sI407175
(F0.26868999999999998
F1
F0.57394000000000001
tp2145
sI407176
(F0.26856000000000002
F1
F0.26930999999999999
tp2146
sI407177
(F0.26860000000000001
F1
F0.15704000000000001
tp2147
sI407178
(F0.048148000000000003
F1
F0.56093999999999999
tp2148
sI407179
(F0.048058999999999998
F1
F0.27855000000000002
tp2149
sI407180
(F0.048163999999999998
F1
F0.16028000000000001
tp2150
sI407181
(F0.0064279000000000003
F1
F0.55025000000000002
tp2151
sI407182
(F0.0064130000000000003
F1
F0.28638999999999998
tp2152
sI407183
(F0.0064412000000000002
F1
F0.16369
tp2153
sI407200
(F435.44
F1.8743000000000001
F0.49442000000000003
tp2154
sI407201
(F436.63
F1.8743000000000001
F0.034417999999999997
tp2155
sI407202
(F436.48000000000002
F1.8743000000000001
F0.011386
tp2156
sI407203
(F436.48000000000002
F1.8743000000000001
F0.0093390999999999995
tp2157
sI407204
(F436.57999999999998
F1.8743000000000001
F0.0036974999999999998
tp2158
sI301891
(F1.5282
F1
F1
tp2159
sI407309
(F0.034041000000000002
F1
F1
tp2160
sI407311
(F0.00010234999999999999
F1
F1
tp2161
sI407312
(F0.00056766
F1
F1
tp2162
sI407313
(F0.0043683999999999997
F1
F1
tp2163
sI407314
(F0.015845999999999999
F1
F1
tp2164
sI407320
(F0.21504999999999999
F1
F1
tp2165
sI407321
(F0.00026600000000000001
F1.3400000000000001
F1
tp2166
sI407322
(F696.21000000000004
F1.1949000000000001
F0.0013978
tp2167
sI407323
(F696.23000000000002
F1.1949000000000001
F0.00031399999999999999
tp2168
sI341947
(F0.015767
F1.4560436354399999
F0.010255999999999999
tp2169
sI341964
(F0.00029075999999999999
F1.27767114215
F1
tp2170
sI427000
(F78420000000
F1
F0.00044684999999999999
tp2171
sI341974
(F0.015771
F1.45567433898
F0.041082
tp2172
sI341975
(F1.5960999999999998e-05
F1.48104910977
F1
tp2173
sI342092
(F1
F1
F1
tp2174
sI342093
(F1
F1
F1
tp2175
sI342094
(F1
F1
F1
tp2176
sI342095
(F1
F1
F1
tp2177
sI342096
(F1
F1
F1
tp2178
sI342097
(F0.00094218700000000004
F1.34726443186
F1
tp2179
sI342098
(F-7.6421000000000006e-05
F1.34684509289
F1
tp2180
sI342178
(F1.5468899999999999e-07
F1.45440095371
F1
tp2181
sI342189
(F1.9628400000000001e-08
F0.978130382588
F1
tp2182
sI342282
(F30.198
F1.45440095371
F1
tp2183
sI342283
(F3.8317999999999999
F0.978130382588
F1
tp2184
sI342284
(F1.1021000000000001
F1.25215497686
F1
tp2185
sI342285
(F0.60072000000000003
F1.4475962178699999
F1
tp2186
sI342286
(F0.41327000000000003
F1.3471666315599999
F1
tp2187
sI342287
(F-0.033509999999999998
F1.3471666315599999
F1
tp2188
sI342288
(F0.00115938
F1
F1
tp2189
sI301528
(F696.25
F1.1949000000000001
F0.0047193299999999999
tp2190
sI301529
(F696.25
F1.1949000000000001
F0.001944
tp2191
sI301530
(F696.23000000000002
F1.1949000000000001
F0.00086308000000000001
tp2192
sI301531
(F696.24000000000001
F1.1949000000000001
F0.00051909999999999999
tp2193
sI301532
(F696.25
F1.1949000000000001
F0.00030918999999999999
tp2194
sI301535
(F52.706000000000003
F1
F1
tp2195
sI301536
(F52.707999999999998
F1
F1
tp2196
sI301540
(F1426
F1
F1
tp2197
sI301541
(F13.836
F1
F1
tp2198
sI301542
(F2.3332000000000002
F1
F1
tp2199
sI301543
(F0.86745000000000005
F1
F1
tp2200
sI301544
(F0.15568000000000001
F1
F1
tp2201
sI301545
(F0.02971
F1
F1
tp2202
sI301546
(F0.0083464999999999998
F1
F1
tp2203
sI301547
(F0.0033105000000000001
F1
F1
tp2204
sI301548
(F0.0010981999999999999
F1
F1
tp2205
sI301549
(F0.00041871999999999998
F1
F1
tp2206
sI301550
(F0.00017594999999999999
F1
F1
tp2207
sI301551
(F7.9961000000000002e-05
F1
F1
tp2208
sI301552
(F3.8234e-05
F1
F1
tp2209
sI301553
(F1.9048000000000001e-05
F1
F1
tp2210
sI301554
(F9.8534999999999998e-06
F1
F1
tp2211
sI301555
(F8.0448999999999998e-06
F1
F1
tp2212
sI301556
(F2.419e-06
F1
F1
tp2213
sI301557
(F7.5769e-07
F1
F1
tp2214
sI301558
(F2.4326000000000002e-07
F1
F1
tp2215
sI301559
(F1.1691000000000001e-07
F1
F1
tp2216
sI301560
(F1430.0999999999999
F1
F1
tp2217
sI301561
(F13.846
F1
F1
tp2218
sI301562
(F2.3311000000000002
F1
F1
tp2219
sI301563
(F0.86684000000000005
F1
F1
tp2220
sI301564
(F0.15620999999999999
F1
F1
tp2221
sI301565
(F0.029571
F1
F1
tp2222
sI301566
(F0.0083306999999999999
F1
F1
tp2223
sI301567
(F0.0033162000000000001
F1
F1
tp2224
sI301568
(F0.001098
F1
F1
tp2225
sI301569
(F0.00041838999999999998
F1
F1
tp2226
sI301570
(F0.0001762
F1
F1
tp2227
sI301571
(F7.9697999999999995e-05
F1
F1
tp2228
sI301572
(F3.8192999999999998e-05
F1
F1
tp2229
sI301573
(F1.9148e-05
F1
F1
tp2230
sI301574
(F9.8944999999999999e-06
F1
F1
tp2231
sI301575
(F8.0137999999999994e-06
F1
F1
tp2232
sI301576
(F2.4223000000000001e-06
F1
F1
tp2233
sI301577
(F7.5613999999999999e-07
F1
F1
tp2234
sI301578
(F2.4256000000000002e-07
F1
F1
tp2235
sI301579
(F1.1665e-07
F1
F1
tp2236
sI342556
(F1.2790999999999999
F1
F0.032522000000000002
tp2237
sI410215
(F0.015558000000000001
F1
F1
tp2238
sI410217
(F0.015483
F1
F1
tp2239
sI410218
(F0.036887999999999997
F1.1200000000000001
F1
tp2240
sI410219
(F0.036894999999999997
F1.1200000000000001
F1
tp2241
sI410220
(F0.036599
F1.1200000000000001
F1
tp2242
sI187150
(F1.1792
F1
F1
tp2243
sI187151
(F1.179
F1
F1
tp2244
sI187152
(F1.179
F1
F1
tp2245
sI187153
(F1.179
F1
F1
tp2246
sI187154
(F1.1792
F1
F1
tp2247
sI187155
(F1.179
F1
F1
tp2248
sI187156
(F1.179
F1
F1
tp2249
sI187157
(F1.179
F1
F1
tp2250
sI187158
(F1.1792
F1
F1
tp2251
sI187160
(F1.6879999999999999
F1
F0.28537000000000001
tp2252
sI187161
(F1.1679999999999999
F1
F0.34094999999999998
tp2253
sI187162
(F0.21410000000000001
F1
F0.16291
tp2254
sI187163
(F1.7689999999999999
F1
F0.28649000000000002
tp2255
sI187164
(F1.151
F1
F0.34168999999999999
tp2256
sI187165
(F0.21410000000000001
F1
F0.16358
tp2257
sI187166
(F1.7689999999999999
F1
F0.14671000000000001
tp2258
sI361605
(F0.54901
F1
F1
tp2259
sI187168
(F0.2104
F1
F0.059700999999999997
tp2260
sI187170
(F2.3540000000000001
F1
F0.27156000000000002
tp2261
sI187171
(F1.5589999999999999
F1
F0.32574999999999998
tp2262
sI187172
(F0.31290000000000001
F1
F0.16384000000000001
tp2263
sI187173
(F2.371
F1
F0.2722
tp2264
sI187174
(F1.591
F1
F0.32682
tp2265
sI187175
(F0.31290000000000001
F1
F0.16328999999999999
tp2266
sI187176
(F2.371
F1
F0.13783999999999999
tp2267
sI187177
(F1.5589999999999999
F1
F0.17402000000000001
tp2268
sI187178
(F0.30809999999999998
F1
F0.060374999999999998
tp2269
sI187180
(F0.13239999999999999
F1
F0.91935
tp2270
sI187181
(F0.29609999999999997
F1
F0.84899999999999998
tp2271
sI187182
(F0.29609999999999997
F1
F0.60914999999999997
tp2272
sI187183
(F0.13239999999999999
F1
F0.92286000000000001
tp2273
sI187184
(F0.29609999999999997
F1
F0.61565000000000003
tp2274
sI187185
(F0.13239999999999999
F1
F0.11319
tp2275
sI187186
(F0.10323
F1
F1
tp2276
sI187187
(F0.10323
F1
F1
tp2277
sI187188
(F0.10323
F1
F1
tp2278
sI301887
(F0.20075000000000001
F1
F1
tp2279
sI301888
(F0.20091000000000001
F1
F1
tp2280
sI301889
(F0.20077999999999999
F1
F1
tp2281
sI301890
(F15.348000000000001
F1
F1
tp2282
sI361611
(F3.9447999999999999
F1
F1
tp2283
sI301892
(F0.24154999999999999
F1
F1
tp2284
sI301893
(F15.272
F1
F1
tp2285
sI301894
(F1.5235000000000001
F1
F1
tp2286
sI301895
(F0.24182999999999999
F1
F1
tp2287
sI301896
(F15.297000000000001
F1
F1
tp2288
sI301897
(F1.5289999999999999
F1
F1
tp2289
sI301898
(F0.24260000000000001
F1
F1
tp2290
sI301899
(F5.242
F1
F1
tp2291
sI301900
(F0.38455
F1
F1
tp2292
sI301901
(F0.047209000000000001
F1
F1
tp2293
sI301902
(F5.2454999999999998
F1
F1
tp2294
sI301903
(F0.38547999999999999
F1
F1
tp2295
sI301904
(F0.047239999999999997
F1
F1
tp2296
sI301905
(F5.2489999999999997
F1
F1
tp2297
sI301906
(F0.38482
F1
F1
tp2298
sI301907
(F0.047024999999999997
F1
F1
tp2299
sI301908
(F4.0365000000000002
F1
F1
tp2300
sI301909
(F0.97150999999999998
F1
F1
tp2301
sI301910
(F0.17115
F1
F1
tp2302
sI341488
(F0.00103101
F0.97861562965100002
F1
tp2303
sI341179
(F0.0350747
F0.95751253870399999
F1
tp2304
sI341181
(F0.053860600000000002
F0.97605390479800003
F1
tp2305
sI341182
(F0.054351099999999999
F0.96724625034300005
F1
tp2306
sI343212
(F0.0027499870000000002
F1
F1
tp2307
sI343213
(F0.0027019729999999999
F1
F1
tp2308
sI343279
(F519470
F1
F0.44135000000000002
tp2309
sI343281
(F519470
F1
F0.48260999999999998
tp2310
sI343283
(F519470
F1
F0.075953000000000007
tp2311
sI343365
(F0.053429999999999998
F1
F1
tp2312
sI343366
(F0.22276000000000001
F1
F1
tp2313
sI343367
(F0.23082
F1
F1
tp2314
sI341505
(F0.0036120599999999998
F1.4547863531
F1
tp2315
sI343637
(F696.23000000000002
F1.1949000000000001
F0.026280999999999999
tp2316
sI305785
(F1427.2
F1
F1
tp2317
ss.