(dp1
F18
(dp2
I341524
(F0.70645000000000002
F1
F1
tp3
sI426072
(F696.21000000000004
F0.00047610000000000003
F1
tp4
sI426075
(F696.24000000000001
F0.00081349999999999999
F1
tp5
sI426076
(F696.25
F0.00012899999999999999
F1
tp6
sI426077
(F696.21000000000004
F6.8628999999999996e-05
F1
tp7
sI426078
(F696.25
F0.00013736999999999999
F1
tp8
sI426082
(F696.23000000000002
F0.0011745
F1
tp9
sI426086
(F696.25
F0.00056755
F1
tp10
sI426087
(F696.25
F0.00017885000000000001
F1
tp11
sI426088
(F696.25
F0.00030153999999999999
F1
tp12
sI426090
(F696.38999999999999
F1
F1
tp13
sI344171
(F696.23000000000002
F0.10538
F1.1950000000000001
tp14
sI426092
(F696.37
F1
F1
tp15
sI426093
(F696.21000000000004
F1
F1
tp16
sI426094
(F696.84000000000003
F1
F1
tp17
sI426095
(F697
F1
F1
tp18
sI426096
(F696.70000000000005
F1
F1
tp19
sI426097
(F696.45000000000005
F1
F1
tp20
sI344179
(F2.6970000000000001
F0.31458000000000003
F1
tp21
sI362259
(F11.039999999999999
F0.1444
F0.88133799999999995
tp22
sI426091
(F696.07000000000005
F1
F1
tp23
sI344255
(F1177.2
F0.079762
F1
tp24
sI344256
(F1177.5
F0.040897000000000003
F1
tp25
sI344257
(F1177.4000000000001
F0.041106999999999998
F1
tp26
sI344258
(F1177.4000000000001
F0.040746999999999998
F1
tp27
sI344259
(F1177.4000000000001
F0.039967000000000003
F1
tp28
sI344260
(F1177.4000000000001
F0.041841999999999997
F1
tp29
sI344261
(F1177.4000000000001
F0.040968999999999998
F1
tp30
sI344262
(F1177.4000000000001
F0.040948999999999999
F1
tp31
sI344263
(F1177.5
F0.040969999999999999
F1
tp32
sI344264
(F1177.4000000000001
F0.040937000000000001
F1
tp33
sI344287
(F1
F1
F1
tp34
sI344288
(F1
F1
F1
tp35
sI344289
(F1
F1
F1
tp36
sI344295
(F2071.3000000000002
F0.00060214000000000003
F1
tp37
sI344296
(F2070.1999999999998
F0.00060820000000000004
F1
tp38
sI344297
(F2071.4000000000001
F0.013278
F1
tp39
sI344298
(F2071.5
F0.013328
F1
tp40
sI344301
(F4.5122
F0.0048818000000000004
F1
tp41
sI344302
(F0.92264000000000002
F0.016209000000000001
F1
tp42
sI303437
(F13.834
F1
F1
tp43
sI303438
(F2.3348
F1
F1
tp44
sI303439
(F0.86570999999999998
F1
F1
tp45
sI303440
(F0.15608
F1
F1
tp46
sI303441
(F0.029635000000000002
F1
F1
tp47
sI303442
(F0.0083164999999999992
F1
F1
tp48
sI303443
(F0.0033069000000000002
F1
F1
tp49
sI303444
(F0.0010953
F1
F1
tp50
sI303445
(F0.00041785999999999999
F1
F1
tp51
sI303446
(F0.0001761
F1
F1
tp52
sI303447
(F7.9868000000000002e-05
F1
F1
tp53
sI303448
(F3.82e-05
F1
F1
tp54
sI303449
(F1.9097e-05
F1
F1
tp55
sI303450
(F9.9000000000000001e-06
F1
F1
tp56
sI303451
(F8.0606000000000004e-06
F1
F1
tp57
sI303452
(F2.4181000000000002e-06
F1
F1
tp58
sI303453
(F7.5656000000000005e-07
F1
F1
tp59
sI303454
(F1.9999999999999999e-07
F1
F1
tp60
sI303455
(F9.9999999999999995e-08
F1
F1
tp61
sI426336
(F1901.0999999999999
F0.0034696000000000002
F1
tp62
sI303480
(F13.471
F1
F1
tp63
sI303481
(F3.8249
F1
F1
tp64
sI303482
(F0.10474
F1
F1
tp65
sI303483
(F0.0054625999999999997
F1
F1
tp66
sI303484
(F5.2599999999999998e-05
F1
F1
tp67
sI303485
(F1.1999999999999999e-06
F1
F1
tp68
sI303486
(F0
F1
F1
tp69
sI303487
(F1.3444e-09
F1
F1
tp70
sI410000
(F696.11000000000001
F0.54420000000000002
F1.1950000000000001
tp71
sI410001
(F783.73000000000002
F0.54420000000000002
F1.0612838605099999
tp72
sI410002
(F611.10000000000002
F0.54420000000000002
F1.3610865652099999
tp73
sI410003
(F694.59000000000003
F0.54420000000000002
F1.19748340748
tp74
sI410004
(F696.32000000000005
F0.54420000000000002
F1.19450827206
tp75
sI410006
(F696.35000000000002
F0.54420000000000002
F1.19445681051
tp76
sI410007
(F696.21000000000004
F0.45700000000000002
F1.1950000000000001
tp77
sI410008
(F694.44000000000005
F0.45700000000000002
F1.19774206555
tp78
sI410009
(F696.11000000000001
F0.10534
F1.1950000000000001
tp79
sI410011
(F43.738999999999997
F1
F1.00944237408
tp80
sI410012
(F25.777999999999999
F1
F1.0193187989800001
tp81
sI410013
(F34.009
F1
F1.054
tp82
sI410014
(F33.988999999999997
F1
F1.054
tp83
sI410015
(F3.5834000000000001
F1
F1.054
tp84
sI410016
(F3.5813000000000001
F1
F1.054
tp85
sI410017
(F40.343000000000004
F1
F1.09441538805
tp86
sI410018
(F44.380000000000003
F1
F0.99486255069899998
tp87
sI410019
(F23.751000000000001
F1
F1.10631131321
tp88
sI410020
(F26.387
F1
F0.99579338310499999
tp89
sI410021
(F78.730000000000004
F1
F1.1699999999999999
tp90
sI410022
(F157.47
F1
F1.1699999999999999
tp91
sI410023
(F157.56999999999999
F1
F1.1699999999999999
tp92
sI410024
(F316.14999999999998
F1
F1.1699999999999999
tp93
sI410025
(F2.0514000000000001
F1
F1.0047821000299999
tp94
sI410026
(F1.2615000000000001
F1
F1.02153151011
tp95
sI410037
(F745.61000000000001
F0.54391999999999996
F1
tp96
sI410038
(F715.50999999999999
F0.54383000000000004
F1
tp97
sI410039
(F677.57000000000005
F0.54383999999999999
F1
tp98
sI410041
(F608.54999999999995
F0.54381999999999997
F1
tp99
sI410042
(F745.57000000000005
F0.45619999999999999
F1
tp100
sI410043
(F715.49000000000001
F0.45624999999999999
F1
tp101
sI410044
(F677.54999999999995
F0.45622000000000001
F1
tp102
sI410045
(F650.62
F0.45622000000000001
F1
tp103
sI410046
(F608.52999999999997
F0.45629999999999998
F1
tp104
sI410047
(F43.613999999999997
F1
F1.0123354886
tp105
sI410048
(F25.744
F1
F1.02066500932
tp106
sI410049
(F0.0090635999999999998
F1
F1
tp107
sI410050
(F0.24013000000000001
F1
F1
tp108
sI410051
(F0.31524999999999997
F1
F1
tp109
sI410052
(F0.31652000000000002
F1
F1
tp110
sI410053
(F0.35513
F1
F1
tp111
sI410054
(F0.35620000000000002
F1
F1
tp112
sI410056
(F0.42914000000000002
F1
F1
tp113
sI410057
(F0.23164999999999999
F1
F1
tp114
sI410058
(F0.34184999999999999
F1
F1
tp115
sI410060
(F696.49000000000001
F0.54388000000000003
F1
tp116
sI410062
(F32.384
F1
F1.054
tp117
sI410063
(F32.356000000000002
F1
F1.054
tp118
sI410064
(F3.4133
F1
F1.054
tp119
sI410065
(F3.4089999999999998
F1
F1.054
tp120
sI410066
(F0.17655999999999999
F1
F1.3200000000000001
tp121
sI410067
(F0.14061999999999999
F1
F1.3200000000000001
tp122
sI410068
(F0.1368
F1
F1.3200000000000001
tp123
sI410069
(F0.1368
F1
F1.3200000000000001
tp124
sI410070
(F0.1368
F1
F1.3200000000000001
tp125
sI410073
(F0.17319000000000001
F1
F1.47
tp126
sI410074
(F0.16533
F1
F1.47
tp127
sI410075
(F0.17288999999999999
F1
F1.47
tp128
sI410080
(F0.0091631000000000004
F1
F1.0041361547900001
tp129
sI410081
(F0.0080952000000000003
F1
F1.2234259385099999
tp130
sI410082
(F2.9788000000000001
F1
F1.47
tp131
sI410083
(F2.9805000000000001
F0.28386
F1.47
tp132
sI410084
(F2.9805000000000001
F0.11291
F1.47
tp133
sI410087
(F2.2286999999999999
F1
F1.47
tp134
sI410088
(F2.2286999999999999
F0.30388999999999999
F1.47
tp135
sI410089
(F2.2294999999999998
F0.12492
F1.47
tp136
sI410099
(F34.917000000000002
F1
F1.0269999999999999
tp137
sI410100
(F33.406999999999996
F1
F1.073
tp138
sI410101
(F34.893000000000001
F1
F1.0269999999999999
tp139
sI410102
(F33.387999999999998
F1
F1.073
tp140
sI410103
(F3.6789999999999998
F1
F1.0269999999999999
tp141
sI410104
(F3.5200999999999998
F1
F1.073
tp142
sI410105
(F3.6766999999999999
F1
F1.0269999999999999
tp143
sI410106
(F3.5181
F1
F1.073
tp144
sI410107
(F2.0754999999999999
F1
F0.99311491206900004
tp145
sI410108
(F2.0331000000000001
F1
F1.0138261767700001
tp146
sI410109
(F1.2753000000000001
F1
F1.0104775346999999
tp147
sI410110
(F1.2514000000000001
F1
F1.0297762506000001
tp148
sI410111
(F0.0088304999999999998
F1
F1.51
tp149
sI410112
(F0.014378999999999999
F1
F1.51
tp150
sI410113
(F0.0088197999999999992
F1
F1.51
tp151
sI410114
(F0.014393
F1
F1.51
tp152
sI410115
(F0.0090199000000000008
F1
F1.51
tp153
sI410116
(F0.014614
F1
F1.51
tp154
sI344582
(F1901.2
F1
F1
tp155
sI410120
(F696.23000000000002
F0.034624000000000002
F1.19466268331
tp156
sI410121
(F696.23000000000002
F0.0064567000000000001
F1.19466268331
tp157
sI410141
(F68.768000000000001
F1
F1
tp158
sI410142
(F0.11312999999999999
F1
F1.0900000000000001
tp159
sI410143
(F0.68720000000000003
F1
F1.1000000000000001
tp160
sI410144
(F0.57735999999999998
F1
F1.04
tp161
sI410145
(F4
F1
F0.94430000000000003
tp162
sI410146
(F4
F1
F0.94369999999999998
tp163
sI410147
(F34
F1
F1.054
tp164
sI410148
(F34
F1
F1.054
tp165
sI410151
(F0.19747999999999999
F1
F1
tp166
sI410152
(F0.29865999999999998
F1
F1
tp167
sI410153
(F0.0074283999999999999
F1
F1
tp168
sI410154
(F0.011252
F1
F1
tp169
sI410155
(F0.54837999999999998
F1
F1.0960000000000001
tp170
sI410156
(F0.15490000000000001
F1
F1.1100000000000001
tp171
sI410157
(F0.52808999999999995
F1
F1.1100000000000001
tp172
sI410159
(F679.75999999999999
F0.54413
F1.22360833235
tp173
sI410160
(F679.12
F0.45609
F1.224761456
tp174
sI410161
(F783.84000000000003
F0.45606999999999998
F1
tp175
sI410162
(F611.12
F0.45619999999999999
F1
tp176
sI410163
(F696.34000000000003
F0.45623999999999998
F1
tp177
sI410164
(F7.8714000000000004
F1
F0.94369999999999998
tp178
sI410165
(F73.530000000000001
F1
F0.97511219910199998
tp179
sI410175
(F512.25999999999999
F0.0084174000000000002
F1.6238999999999999
tp180
sI410176
(F512.21000000000004
F0.26062000000000002
F1.6238999999999999
tp181
sI410178
(F9.6918000000000006
F0.042646000000000003
F1
tp182
sI410179
(F9.6943000000000001
F0.28643000000000002
F1
tp183
sI410181
(F506.61000000000001
F0.0066604000000000003
F1
tp184
sI410182
(F506.67000000000002
F0.25352000000000002
F1
tp185
sI410184
(F0.31524000000000002
F1
F1
tp186
sI410185
(F0.31498999999999999
F1
F1
tp187
sI410186
(F330.35000000000002
F1
F1.1484000000000001
tp188
sI410187
(F158.97
F1
F1.1484000000000001
tp189
sI410188
(F158.81999999999999
F1
F1.1484000000000001
tp190
sI410189
(F76.219999999999999
F1
F1.1484000000000001
tp191
sI410190
(F0.17319999999999999
F1
F1.47
tp192
sI410191
(F0.17332
F1
F1.47
tp193
sI410192
(F0.16539000000000001
F1
F1.47
tp194
sI410193
(F0.16524
F1
F1.47
tp195
sI410194
(F0.17351
F1
F1.47
tp196
sI410195
(F0.17299
F1
F1.47
tp197
sI410196
(F0.14226
F1
F1.7088000000000001
tp198
sI410197
(F0.22897000000000001
F1
F0.9546
tp199
sI410198
(F0.10949
F1
F1.7088000000000001
tp200
sI410199
(F0.18959999999999999
F1
F0.9546
tp201
sI410200
(F0.098946000000000006
F1
F1.7088000000000001
tp202
sI410201
(F0.20918999999999999
F1
F0.9546
tp203
sI410202
(F0.0066788999999999998
F1
F2.21
tp204
sI410203
(F0.015713999999999999
F1
F0.94999999999999996
tp205
sI410204
(F0.011837
F1
F2.21
tp206
sI410205
(F0.027172000000000002
F1
F0.94999999999999996
tp207
sI410206
(F0.0066833999999999999
F1
F2.21
tp208
sI410207
(F0.015726
F1
F0.94999999999999996
tp209
sI410208
(F0.011839000000000001
F1
F2.21
tp210
sI410209
(F0.027178999999999998
F1
F0.94999999999999996
tp211
sI410210
(F0.0068002000000000002
F1
F2.21
tp212
sI410211
(F0.016289000000000001
F1
F0.94999999999999996
tp213
sI410212
(F0.012082000000000001
F1
F2.21
tp214
sI410213
(F0.027973000000000001
F1
F0.94999999999999996
tp215
sI410215
(F0.015558000000000001
F1
F1
tp216
sI410217
(F0.015483
F1
F1
tp217
sI303722
(F696.25
F0.0039620999999999996
F1
tp218
sI303723
(F696.24000000000001
F0.0016368999999999999
F1
tp219
sI303724
(F696.22000000000003
F0.00072555000000000004
F1
tp220
sI303725
(F696.24000000000001
F0.00044077999999999999
F1
tp221
sI303726
(F696.24000000000001
F0.00026080999999999999
F1
tp222
sI410223
(F258.33999999999997
F0.36839
F1
tp223
sI410224
(F413.95999999999998
F0.48163
F1
tp224
sI410225
(F711.27999999999997
F0.54735
F1.1693847711200001
tp225
sI410228
(F43.759
F1
F1
tp226
sI410229
(F25.797000000000001
F1
F1
tp227
sI410230
(F69.129999999999995
F1
F1
tp228
sI410232
(F696.33000000000004
F0.54393000000000002
F1.1944911177199999
tp229
sI410233
(F694.00999999999999
F0.54391
F1.1984841717000001
tp230
sI410234
(F248.87
F1
F3.3421465021899999
tp231
sI410237
(F3.5903
F1
F1
tp232
sI410238
(F3.5886999999999998
F1
F1
tp233
sI410239
(F7.8783000000000003
F1
F1
tp234
sI410240
(F43.404000000000003
F1
F1
tp235
sI410241
(F25.591999999999999
F1
F1
tp236
sI410242
(F41.734000000000002
F1
F1
tp237
sI410243
(F24.553999999999998
F1
F1
tp238
sI410244
(F0.31961000000000001
F1
F1
tp239
sI410245
(F0.32212000000000002
F1
F1
tp240
sI410248
(F730.17999999999995
F1
F1
tp241
sI410249
(F330.54000000000002
F1
F1.1484000000000001
tp242
sI410250
(F158.75999999999999
F1
F1
tp243
sI410251
(F158.97
F1
F1
tp244
sI410252
(F76.277000000000001
F1
F1.1484000000000001
tp245
sI361101
(F11306
F1
F1.0172399964600001
tp246
sI361102
(F11306
F1
F1.0172399964600001
tp247
sI361103
(F8283.1000000000004
F1
F1.0357734917400001
tp248
sI361104
(F8283
F1
F1.0357609866199999
tp249
sI410257
(F712.03999999999996
F0.54710000000000003
F1
tp250
sI410258
(F75.768000000000001
F1
F1
tp251
sI410259
(F320.69999999999999
F1
F1
tp252
sI410260
(F725.96000000000004
F0.54762
F1
tp253
sI410261
(F77.094999999999999
F1
F1
tp254
sI410262
(F325.70999999999998
F1
F1
tp255
sI410276
(F0.018241
F1
F1.1200000000000001
tp256
sI410277
(F0.018239999999999999
F1
F1.1200000000000001
tp257
sI410278
(F0.0019581999999999998
F1
F1.1200000000000001
tp258
sI410281
(F158.80000000000001
F0.08319
F1
tp259
sI410282
(F158.78999999999999
F0.083981
F1
tp260
sI410283
(F76.284000000000006
F0.080864000000000005
F1
tp261
sI410290
(F0.036297999999999997
F1
F1
tp262
sI410291
(F0.055305
F1
F1
tp263
sI410292
(F0.024413000000000001
F1
F1
tp264
sI410293
(F0.049175000000000003
F1
F1
tp265
sI410294
(F0.030290000000000001
F1
F1
tp266
sI410295
(F0.039146
F1
F1
tp267
sI410296
(F0.039215
F1
F1
tp268
sI410297
(F0.039114999999999997
F1
F1
tp269
sI410298
(F0.038560999999999998
F1
F1
tp270
sI410299
(F0.040558999999999998
F1
F1
tp271
sI410300
(F0.033389000000000002
F1
F1
tp272
sI410301
(F0.036290999999999997
F1
F1
tp273
sI410302
(F0.055293000000000002
F1
F1
tp274
sI410303
(F0.024478
F1
F1
tp275
sI410304
(F0.049624000000000001
F1
F1
tp276
sI410305
(F0.030370999999999999
F1
F1
tp277
sI410306
(F0.039212999999999998
F1
F1
tp278
sI410307
(F0.039267000000000003
F1
F1
tp279
sI410308
(F0.039197000000000003
F1
F1
tp280
sI410309
(F0.038649999999999997
F1
F1
tp281
sI410310
(F0.040400999999999999
F1
F1
tp282
sI410311
(F0.033368000000000002
F1
F1
tp283
sI410312
(F0.036047000000000003
F1
F1
tp284
sI410313
(F0.054774999999999997
F1
F1
tp285
sI410314
(F0.024254000000000001
F1
F1
tp286
sI410315
(F0.049288999999999999
F1
F1
tp287
sI410316
(F0.030009000000000001
F1
F1
tp288
sI410317
(F0.039052000000000003
F1
F1
tp289
sI410318
(F0.039083
F1
F1
tp290
sI410319
(F0.038892000000000003
F1
F1
tp291
sI410320
(F0.038532999999999998
F1
F1
tp292
sI410321
(F0.040405000000000003
F1
F1
tp293
sI410322
(F0.033169999999999998
F1
F1
tp294
sI410329
(F5.7251000000000003
F1
F1
tp295
sI410330
(F5.7247000000000003
F1
F1
tp296
sI410331
(F2.7477
F1
F1
tp297
sI410332
(F6.2927
F1
F1
tp298
sI410333
(F6.2980999999999998
F1
F1
tp299
sI410334
(F3.0283000000000002
F1
F1
tp300
sI410335
(F5.7243000000000004
F1
F1
tp301
sI410336
(F5.7401
F1
F1
tp302
sI410337
(F2.7566000000000002
F1
F1
tp303
sI410342
(F76.754000000000005
F1
F1
tp304
sI410343
(F76.457999999999998
F1
F1
tp305
sI410344
(F159.75999999999999
F1
F1
tp306
sI410345
(F159.63
F1
F1
tp307
sI410346
(F160.15000000000001
F1
F1
tp308
sI410347
(F159.58000000000001
F1
F1
tp309
sI410350
(F73.719999999999999
F1
F1
tp310
sI410351
(F78.784000000000006
F1
F1
tp311
sI410352
(F153.13999999999999
F1
F1
tp312
sI410353
(F163.25999999999999
F1
F1
tp313
sI410354
(F153.33000000000001
F1
F1
tp314
sI410355
(F163.46000000000001
F1
F1
tp315
sI410357
(F75.843000000000004
F1
F1
tp316
sI410358
(F157.86000000000001
F1
F1
tp317
sI410359
(F158.38999999999999
F1
F1
tp318
sI410361
(F76.432000000000002
F1
F1
tp319
sI410362
(F158.78
F1
F1
tp320
sI410363
(F158.94999999999999
F1
F1
tp321
sI410365
(F78.382999999999996
F1
F1
tp322
sI410366
(F163.34999999999999
F1
F1
tp323
sI410367
(F163.43000000000001
F1
F1
tp324
sI410368
(F15.343
F1
F1
tp325
sI410370
(F0.036924999999999999
F1
F1
tp326
sI410371
(F0.036932
F1
F1
tp327
sI410372
(F0.036928000000000002
F1
F1
tp328
sI410373
(F0.036923999999999998
F1
F1
tp329
sI410374
(F0.036568000000000003
F1
F1
tp330
sI410375
(F0.036568000000000003
F1
F1
tp331
sI410376
(F0.54823999999999995
F1
F1
tp332
sI410377
(F0.54822000000000004
F1
F1
tp333
sI410378
(F0.15518999999999999
F1
F1
tp334
sI410379
(F0.15518000000000001
F1
F1
tp335
sI410380
(F0.52866000000000002
F1
F1
tp336
sI410381
(F0.52866999999999997
F1
F1
tp337
sI410382
(F2.6755
F0.50915999999999995
F1
tp338
sI410383
(F2.8077999999999999
F0.50785999999999998
F1
tp339
sI410384
(F2.9900000000000002
F0.50893999999999995
F1
tp340
sI410385
(F2.4626999999999999
F0.50866
F1
tp341
sI410386
(F2.9127000000000001
F0.50853000000000004
F1
tp342
sI410387
(F2.6778
F0.50841999999999998
F1
tp343
sI410388
(F2.754
F0.50868000000000002
F1
tp344
sI410389
(F4.6239999999999997
F1
F1.1599999999999999
tp345
sI410390
(F730.19000000000005
F0.54391
F1
tp346
sI410391
(F730.19000000000005
F0.54391
F1
tp347
sI410394
(F3.6278999999999999
F1
F1
tp348
sI410395
(F4.6231999999999998
F1
F1
tp349
sI410396
(F3.6278999999999999
F1
F1
tp350
sI410397
(F0.18568000000000001
F1
F1.1200000000000001
tp351
sI410398
(F0.18634000000000001
F1
F1.1200000000000001
tp352
sI410399
(F0.018745000000000001
F1
F1.1200000000000001
tp353
sI410404
(F4.6233000000000004
F1
F1
tp354
sI410405
(F4.6233000000000004
F1
F1
tp355
sI410410
(F3.6278999999999999
F1
F1
tp356
sI410411
(F3.6278999999999999
F1
F1
tp357
sI410424
(F77.807000000000002
F1
F1
tp358
sI410425
(F161.94999999999999
F1
F1
tp359
sI410426
(F161.91999999999999
F1
F1
tp360
sI410427
(F336.88999999999999
F1
F1
tp361
sI410428
(F336.88999999999999
F1
F1
tp362
sI410429
(F336.88999999999999
F1
F1
tp363
sI410430
(F336.88999999999999
F1
F1
tp364
sI410431
(F336.88999999999999
F1
F1
tp365
sI410436
(F336.88999999999999
F1
F1
tp366
sI410437
(F336.88999999999999
F1
F1
tp367
sI410438
(F336.88999999999999
F1
F1
tp368
sI410450
(F736.01999999999998
F1
F1
tp369
sI410451
(F733.16999999999996
F1
F1
tp370
sI361300
(F21390
F0.89149999999999996
F0.90824000000000005
tp371
sI361301
(F21393
F0.04929
F0.90824000000000005
tp372
sI361302
(F21392
F0.059729999999999998
F0.90824000000000005
tp373
sI361303
(F633.58000000000004
F0.7278
F0.90824000000000005
tp374
sI361304
(F632.73000000000002
F0.17599999999999999
F0.90824000000000005
tp375
sI361305
(F632.86000000000001
F0.096369999999999997
F0.90824000000000005
tp376
sI361306
(F90.119
F0.68320000000000003
F0.90824000000000005
tp377
sI361307
(F90.067999999999998
F0.20480000000000001
F0.90824000000000005
tp378
sI361308
(F90.137
F0.11260000000000001
F0.90824000000000005
tp379
sI361309
(F5.7676999999999996
F0.65129999999999999
F0.99912999999999996
tp380
sI361310
(F5.7478999999999996
F0.221
F0.99912999999999996
tp381
sI361311
(F5.7416999999999998
F0.13139999999999999
F0.99912999999999996
tp382
sI361312
(F0.34842000000000001
F0.63060000000000005
F0.99912999999999996
tp383
sI361313
(F0.34584999999999999
F0.243561
F0.99912999999999996
tp384
sI361314
(F0.34632000000000002
F0.155
F0.99912999999999996
tp385
sI361315
(F0.061115999999999997
F0.60962000000000005
F0.99912999999999996
tp386
sI361316
(F0.060838000000000003
F0.20280100000000001
F0.99912999999999996
tp387
sI361317
(F0.061675000000000001
F0.16870099999999999
F0.99912999999999996
tp388
sI361318
(F0.0079206999999999993
F0.62924500000000005
F0.99912999999999996
tp389
sI410471
(F729.76999999999998
F0.45626
F1.13974074379
tp390
sI410472
(F729.76999999999998
F0.10545
F1.1397563615899999
tp391
sI361321
(F3.0800000000000003e-05
F0.63844100000000004
F0.99912999999999996
tp392
sI361322
(F3.1099999999999997e-05
F0.272781
F0.99912999999999996
tp393
sI361323
(F3.1199999999999999e-05
F0.165186
F0.99912999999999996
tp394
sI361324
(F21398
F0.89149999999999996
F0.90824000000000005
tp395
sI361325
(F21387
F0.047370000000000002
F0.90824000000000005
tp396
sI361326
(F21381
F0.059729999999999998
F0.90824000000000005
tp397
sI361327
(F633.64999999999998
F0.7278
F0.90824000000000005
tp398
sI361328
(F632.48000000000002
F0.17599999999999999
F0.90824000000000005
tp399
sI361329
(F632.66999999999996
F0.096369999999999997
F0.90824000000000005
tp400
sI410482
(F729.74000000000001
F0.10546
F1
tp401
sI361331
(F90.079999999999998
F0.20480000000000001
F0.90824000000000005
tp402
sI361332
(F90.106999999999999
F0.11260000000000001
F0.90824000000000005
tp403
sI361333
(F5.7495000000000003
F0.65129999999999999
F0.99912999999999996
tp404
sI361334
(F5.7409999999999997
F0.221
F0.99912999999999996
tp405
sI361335
(F5.742
F0.13139999999999999
F0.99912999999999996
tp406
sI361336
(F0.34766000000000002
F0.63060000000000005
F0.99912999999999996
tp407
sI361337
(F0.34605999999999998
F0.23799999999999999
F0.99912999999999996
tp408
sI361338
(F0.34577999999999998
F0.16400000000000001
F0.99912999999999996
tp409
sI361339
(F0.061534999999999999
F0.632602
F0.99912999999999996
tp410
sI361340
(F0.061488000000000001
F0.22769900000000001
F0.99912999999999996
tp411
sI410493
(F781.86000000000001
F0.54396999999999995
F1
tp412
sI410494
(F682.50999999999999
F0.54400999999999999
F1
tp413
sI361343
(F0.0079127999999999993
F0.23749999999999999
F0.99912999999999996
tp414
sI361344
(F0.0078578999999999993
F0.15962299999999999
F0.99912999999999996
tp415
sI361345
(F3.0899999999999999e-05
F0.61792800000000003
F0.99912999999999996
tp416
sI361346
(F3.0800000000000003e-05
F0.26791700000000002
F0.99909999999999999
tp417
sI361347
(F3.1300000000000002e-05
F0.192802
F0.99912999999999996
tp418
sI410500
(F730.27999999999997
F0.54400999999999999
F1.1389603987500001
tp419
sI410501
(F730.16999999999996
F0.54383000000000004
F1.13913198296
tp420
sI410502
(F249.81
F1
F1.1412100000000001
tp421
sI410503
(F76.932000000000002
F1
F1.139
tp422
sI410504
(F730.15999999999997
F0.031
F1.139
tp423
sI410505
(F76.933000000000007
F0.056000000000000001
F1.139
tp424
sI410506
(F249.88999999999999
F1
F1.1409670000000001
tp425
sI410507
(F730.16999999999996
F0.0015552999999999999
F1.13913198296
tp426
sI361356
(F90.131
F0.11260000000000001
F0.90824000000000005
tp427
sI410509
(F249.80000000000001
F0.060999999999999999
F1.141248
tp428
sI304014
(F0.0016396
F1
F1
tp429
sI410511
(F824.50999999999999
F0.54383000000000004
F1.00879310136
tp430
sI410512
(F640.39999999999998
F0.54388000000000003
F1.29881324172
tp431
sI361361
(F0.34655000000000002
F0.230541
F0.99912999999999996
tp432
sI361362
(F0.34522999999999998
F0.15939999999999999
F0.99912999999999996
tp433
sI410515
(F86.873000000000005
F1
F1.0088600000000001
tp434
sI410516
(F67.474000000000004
F1
F1.29891
tp435
sI410517
(F824.48000000000002
F0.033147999999999997
F1
tp436
sI410518
(F640.38999999999999
F0.030151000000000001
F1
tp437
sI410519
(F86.870999999999995
F0.059143000000000001
F1
tp438
sI410520
(F67.474999999999994
F0.053592000000000001
F1
tp439
sI410521
(F281.98000000000002
F1
F1.0110710000000001
tp440
sI410522
(F219.09999999999999
F1
F1.301293
tp441
sI410523
(F824.50999999999999
F0.0018814000000000001
F1
tp442
sI410524
(F640.39999999999998
F0.0013783000000000001
F1
tp443
sI410525
(F730.14999999999998
F0.54383999999999999
F1.13916318565
tp444
sI410526
(F249.81
F1
F1.1412169999999999
tp445
sI410527
(F76.929000000000002
F1
F1.139
tp446
sI410528
(F730.13999999999999
F0.037999999999999999
F1.139
tp447
sI410529
(F76.930000000000007
F0.070000000000000007
F1.139
tp448
sI410530
(F333.18000000000001
F1
F1.14036
tp449
sI410531
(F83.269999999999996
F1
F1.1412100000000001
tp450
sI410532
(F83.260999999999996
F1
F1.1409670000000001
tp451
sI410533
(F83.269000000000005
F1
F1.141248
tp452
sI410534
(F93.971999999999994
F1
F1.0110710000000001
tp453
sI304625
(F0.27756999999999998
F1
F1
tp454
sI410536
(F83.268000000000001
F1
F1.1412169999999999
tp455
sI410537
(F83.251000000000005
F1
F1.1410359999999999
tp456
sI361386
(F0.046468000000000002
F0.17180000000000001
F0.99131999999999998
tp457
sI361387
(F0.0081344999999999994
F0.5625
F0.99131999999999998
tp458
sI361388
(F0.0081242999999999992
F0.29580000000000001
F0.99131999999999998
tp459
sI361389
(F0.0081563999999999994
F0.18060000000000001
F0.99131999999999998
tp460
sI410542
(F88.781999999999996
F1
F1
tp461
sI361391
(F0.0010616
F0.3135
F0.99131999999999998
tp462
sI410544
(F730.16999999999996
F0.024517000000000001
F1
tp463
sI410545
(F730.16999999999996
F0.54393000000000002
F1
tp464
sI410546
(F730.15999999999997
F1
F1
tp465
sI361395
(F4.3000000000000003e-06
F0.20480000000000001
F0.99131999999999998
tp466
sI361396
(F2204.0999999999999
F0.77849999999999997
F0.9012
tp467
sI361397
(F2205.1999999999998
F0.14219999999999999
F0.9012
tp468
sI410550
(F0.020737999999999999
F1
F1
tp469
sI361399
(F75.909000000000006
F0.64800000000000002
F0.9012
tp470
sI361400
(F76.132000000000005
F0.2198
F0.9012
tp471
sI361401
(F76.063000000000002
F0.13089999999999999
F0.9012
tp472
sI361402
(F11.653
F0.6139
F0.9012
tp473
sI410555
(F730.16999999999996
F0.54393000000000002
F1
tp474
sI361404
(F11.667
F0.14680000000000001
F0.9012
tp475
sI361405
(F0.76187000000000005
F0.58360000000000001
F0.99131999999999998
tp476
sI361406
(F0.76012000000000002
F0.27210299999999998
F0.99131999999999998
tp477
sI361407
(F0.76727999999999996
F0.163024
F0.99131999999999998
tp478
sI410560
(F0.24037
F1
F1
tp479
sI361409
(F0.046272000000000001
F0.265874
F0.99131999999999998
tp480
sI361410
(F0.046287000000000002
F0.17643900000000001
F0.99131999999999998
tp481
sI361411
(F0.0080385999999999999
F0.5625
F0.99131999999999998
tp482
sI361412
(F0.0078922000000000003
F0.28872999999999999
F0.99131999999999998
tp483
sI361413
(F0.0080570999999999993
F0.17863100000000001
F0.99131999999999998
tp484
sI361414
(F0.0010870000000000001
F0.54990000000000006
F0.99131999999999998
tp485
sI361415
(F0.0010425
F0.28250799999999998
F0.99131999999999998
tp486
sI410568
(F824.5
F0.003872
F1
tp487
sI410569
(F640.38999999999999
F0.0028741999999999999
F1
tp488
sI361418
(F4.0999999999999997e-06
F0.32578400000000002
F0.99131999999999998
tp489
sI361419
(F4.1999999999999996e-06
F0.24664900000000001
F0.99131999999999998
tp490
sI361420
(F2198.9000000000001
F0.77849999999999997
F0.9012
tp491
sI361421
(F2203.5
F0.14219999999999999
F0.9012
tp492
sI361422
(F2205.6999999999998
F0.079500000000000001
F0.9012
tp493
sI361423
(F76.310000000000002
F0.64800000000000002
F0.9012
tp494
sI361424
(F76.036000000000001
F0.2198
F0.9012
tp495
sI361425
(F75.984999999999999
F0.13089999999999999
F0.9012
tp496
sI361426
(F11.66
F0.6139
F0.9012
tp497
sI361427
(F11.617000000000001
F0.24260000000000001
F0.9012
tp498
sI361428
(F11.646000000000001
F0.14680000000000001
F0.9012
tp499
sI361429
(F0.76444999999999996
F0.58360000000000001
F0.99131999999999998
tp500
sI361430
(F0.76263000000000003
F0.25577499999999997
F0.99131999999999998
tp501
sI361431
(F0.75982000000000005
F0.15939999999999999
F0.99131999999999998
tp502
sI361432
(F0.045881999999999999
F0.56920000000000004
F0.99131999999999998
tp503
sI361433
(F0.046156999999999997
F0.26919999999999999
F0.99131999999999998
tp504
sI361434
(F0.046282999999999998
F0.17180000000000001
F0.99131999999999998
tp505
sI361435
(F0.0081358000000000003
F0.5625
F0.99131999999999998
tp506
sI361436
(F0.0080176999999999991
F0.29580000000000001
F0.99131999999999998
tp507
sI361437
(F0.0081221000000000002
F0.18060000000000001
F0.99131999999999998
tp508
sI361438
(F0.0010476999999999999
F0.56361000000000006
F0.99131999999999998
tp509
sI361439
(F0.0010499999999999999
F0.348277
F0.99131999999999998
tp510
sI361440
(F0.0010644999999999999
F0.168462
F0.99131999999999998
tp511
sI361441
(F4.0999999999999997e-06
F0.59540599999999999
F0.99131999999999998
tp512
sI361442
(F4.4000000000000002e-06
F0.35995300000000002
F0.99131999999999998
tp513
sI361443
(F4.4000000000000002e-06
F0.25084600000000001
F0.99131999999999998
tp514
sI361444
(F11940
F0.77849999999999997
F0.91410000000000002
tp515
sI361445
(F11950
F0.1401
F0.91410000000000002
tp516
sI361446
(F11944
F0.080000000000000002
F0.91410000000000002
tp517
sI361447
(F428.06999999999999
F0.64959999999999996
F0.91410000000000002
tp518
sI361448
(F427.88999999999999
F0.21840000000000001
F0.91410000000000002
tp519
sI361449
(F427.25999999999999
F0.1328
F0.91410000000000002
tp520
sI361450
(F65.495000000000005
F0.61380000000000001
F0.91410000000000002
tp521
sI361451
(F65.575000000000003
F0.23910000000000001
F0.91410000000000002
tp522
sI361452
(F65.620000000000005
F0.1477
F0.91410000000000002
tp523
sI361453
(F4.2614999999999998
F0.5857
F1.006
tp524
sI361454
(F4.2662000000000004
F0.2606
F1.006
tp525
sI361455
(F4.2733999999999996
F0.16170000000000001
F1.006
tp526
sI361456
(F0.25319000000000003
F0.55500000000000005
F1.006
tp527
sI361457
(F0.25372
F0.27489999999999998
F1.006
tp528
sI361458
(F0.25489000000000001
F0.16489999999999999
F1.006
tp529
sI361459
(F0.044470999999999997
F0.55769999999999997
F1.006
tp530
sI361460
(F0.044350000000000001
F0.3039
F1.006
tp531
sI361461
(F0.044371000000000001
F0.16309999999999999
F1.006
tp532
sI361462
(F0.0056734999999999997
F0.53469999999999995
F1.006
tp533
sI361463
(F0.0055256000000000003
F0.31219999999999998
F1.006
tp534
sI361464
(F0.0057349999999999996
F0.19719999999999999
F1.006
tp535
sI361465
(F2.2799999999999999e-05
F0.54359999999999997
F1.006
tp536
sI361466
(F2.3799999999999999e-05
F0.34560000000000002
F1.006
tp537
sI361467
(F2.3300000000000001e-05
F0.2157
F1.006
tp538
sI361468
(F2253.8000000000002
F0.95157999999999998
F0.90129999999999999
tp539
sI361469
(F2254.3000000000002
F0.047775999999999999
F0.90129999999999999
tp540
sI361470
(F7.7820999999999998
F0.89503999999999995
F0.90129999999999999
tp541
sI361471
(F7.8113000000000001
F0.10793999999999999
F0.90129999999999999
tp542
sI361472
(F0.71013999999999999
F0.87722999999999995
F0.90129999999999999
tp543
sI361473
(F0.70796000000000003
F0.12694
F0.90129999999999999
tp544
sI361474
(F0.0074105999999999998
F0.84514999999999996
F0.90129999999999999
tp545
sI361475
(F0.0074713999999999996
F0.20094999999999999
F0.90129999999999999
tp546
sI361476
(F2251.0999999999999
F0.95130000000000003
F0.90129999999999999
tp547
sI361477
(F2250
F0.047905999999999997
F0.90129999999999999
tp548
sI361478
(F7.7659000000000002
F0.89219999999999999
F0.90129999999999999
tp549
sI361479
(F7.7839999999999998
F0.10731
F0.90129999999999999
tp550
sI361480
(F0.71253
F0.87361999999999995
F0.90129999999999999
tp551
sI361481
(F0.70925000000000005
F0.12955
F0.90129999999999999
tp552
sI361482
(F0.00745
F0.84984000000000004
F0.90129999999999999
tp553
sI345099
(F1981.0999999999999
F0.0033099000000000002
F1
tp554
sI345100
(F108.79000000000001
F0.067726999999999996
F1
tp555
sI345101
(F1981.8
F0.0086914999999999996
F1
tp556
sI345102
(F110.59
F0.081867999999999996
F1
tp557
sI361487
(F7.8131000000000004
F0.11036
F0.90129999999999999
tp558
sI361488
(F0.70869000000000004
F0.87324999999999997
F0.90129999999999999
tp559
sI361489
(F0.70577999999999996
F0.12964000000000001
F0.90129999999999999
tp560
sI361490
(F0.0074352999999999997
F0.84347000000000005
F0.90129999999999999
tp561
sI361491
(F0.0074745999999999996
F0.19323000000000001
F0.90129999999999999
tp562
sI410644
(F2.0516999999999999
F1.0045999999999999
F1
tp563
sI410645
(F1.2615000000000001
F1.0215000000000001
F1
tp564
sI410646
(F34.009
F1.054
F1
tp565
sI410647
(F33.988999999999997
F1.054
F1
tp566
sI410648
(F3.9969999999999999
F1
F0.94510000000000005
tp567
sI410649
(F3.9939
F1
F0.94579999999999997
tp568
sI410650
(F48.549999999999997
F1
F1
tp569
sI410651
(F48.515000000000001
F1
F1
tp570
sI410652
(F6.9467999999999996
F1
F1
tp571
sI410653
(F6.9482999999999997
F1
F1
tp572
sI361502
(F67.305000000000007
F1
F1.232
tp573
sI361503
(F18.678999999999998
F1
F1.232
tp574
sI361504
(F7.2910000000000004
F1
F1.232
tp575
sI361505
(F1402
F1
F1.232
tp576
sI410658
(F43.738999999999997
F1.0094000000000001
F1
tp577
sI410659
(F25.777999999999999
F1.0193000000000001
F1
tp578
sI361508
(F18.632999999999999
F1
F1.232
tp579
sI361509
(F7.3013000000000003
F1
F1.232
tp580
sI361510
(F1398.7
F1
F1.232
tp581
sI361511
(F211.44999999999999
F1
F1.232
tp582
sI361512
(F67.203000000000003
F1
F1.232
tp583
sI361513
(F18.611999999999998
F1
F1.232
tp584
sI361514
(F7.2598000000000003
F1
F1.232
tp585
sI361515
(F7520.8999999999996
F1
F1.2282999999999999
tp586
sI361516
(F1200
F1
F1.2282999999999999
tp587
sI361517
(F387.07999999999998
F1
F1.2282999999999999
tp588
sI361518
(F110.09
F1
F1.2282999999999999
tp589
sI361519
(F43.469000000000001
F1
F1.2282999999999999
tp590
sI361520
(F13949
F1
F1.2018500000000001
tp591
sI361521
(F1894.0999999999999
F1
F1.2018500000000001
tp592
sI361522
(F642.80999999999995
F1
F1.2018500000000001
tp593
sI361523
(F179.31
F1
F1.2018500000000001
tp594
sI361524
(F70.774000000000001
F1
F1.2018500000000001
tp595
sI361525
(F13946
F1
F1.2018500000000001
tp596
sI361526
(F1893.5999999999999
F1
F1.2018500000000001
tp597
sI361527
(F642.62
F1
F1.2018500000000001
tp598
sI361528
(F179.27000000000001
F1
F1.2018500000000001
tp599
sI361529
(F70.826999999999998
F1
F1.2018500000000001
tp600
sI361530
(F13932
F1
F1.2018500000000001
tp601
sI361531
(F1892.0999999999999
F1
F1.2018500000000001
tp602
sI361532
(F642.23000000000002
F1
F1.2018500000000001
tp603
sI361533
(F179.16
F1
F1.2018500000000001
tp604
sI361534
(F71.066999999999993
F1
F1.2018500000000001
tp605
sI410692
(F43.716000000000001
F0.18525
F1
tp606
sI410693
(F43.692999999999998
F0.18395
F1
tp607
sI410694
(F43.764000000000003
F0.19600999999999999
F1
tp608
sI410695
(F43.770000000000003
F0.19656000000000001
F1
tp609
sI410696
(F43.716999999999999
F0.42468
F1
tp610
sI410697
(F43.758000000000003
F0.42326000000000003
F1
tp611
sI410698
(F43.734999999999999
F0.43087999999999999
F1
tp612
sI410699
(F43.735999999999997
F0.42982999999999999
F1
tp613
sI410700
(F0.077143000000000003
F1
F1
tp614
sI410701
(F0.076878000000000002
F1
F1
tp615
sI410702
(F0.16095000000000001
F1
F1
tp616
sI410703
(F0.16014999999999999
F1
F1
tp617
sI361592
(F44.165999999999997
F1
F1
tp618
sI361593
(F3.2875999999999999
F1
F1
tp619
sI361594
(F5.7742000000000004
F1
F1
tp620
sI361595
(F10.095000000000001
F1
F1
tp621
sI361596
(F2.2755999999999998
F1
F1
tp622
sI361597
(F3.9441000000000002
F1
F1
tp623
sI341525
(F0.5544
F1
F1
tp624
sI361600
(F10.637
F1
F1
tp625
sI361601
(F4.5105000000000004
F1
F1
tp626
sI361602
(F2.7780999999999998
F1
F1
tp627
sI361603
(F1.2667999999999999
F1
F1
tp628
sI361604
(F0.92303000000000002
F1
F1
tp629
sI361605
(F0.54527000000000003
F1
F1
tp630
sI361606
(F44.176000000000002
F1
F1
tp631
sI361607
(F3.2879999999999998
F1
F1
tp632
sI361608
(F5.7747999999999999
F1
F1
tp633
sI361609
(F10.095000000000001
F1
F1
tp634
sI361610
(F2.2761999999999998
F1
F1
tp635
sI361611
(F3.9441000000000002
F1
F1
tp636
sI341528
(F0.28531000000000001
F1
F1
tp637
sI361620
(F0.0083429999999999997
F1
F1
tp638
sI361621
(F0.0017340000000000001
F1
F1
tp639
sI361622
(F0.0034299
F1
F1
tp640
sI410775
(F0.018069000000000002
F1
F1
tp641
sI361624
(F0.0019247999999999999
F0.44447999999999999
F1
tp642
sI361625
(F1.7099999999999999e-05
F1
F1
tp643
sI361626
(F0.00044129999999999999
F0.22545000000000001
F1
tp644
sI361627
(F0.00044529999999999998
F0.44818000000000002
F1
tp645
sI410780
(F0.027771000000000001
F1
F1
tp646
sI410781
(F0.027771000000000001
F1
F1
tp647
sI361630
(F29.292000000000002
F1
F1.232
tp648
sI361631
(F6.117
F1
F1.232
tp649
sI361632
(F2.2090999999999998
F1
F1.232
tp650
sI361633
(F2677.0999999999999
F1
F1.232
tp651
sI361634
(F44.979999999999997
F1
F1.232
tp652
sI361635
(F29.302
F1
F1.232
tp653
sI361636
(F6.1087999999999996
F1
F1.232
tp654
sI361637
(F2.2231000000000001
F1
F1.232
tp655
sI361638
(F2412.9000000000001
F1
F1.232
tp656
sI361639
(F46.018999999999998
F1
F1.232
tp657
sI410792
(F0.027771000000000001
F1
F1
tp658
sI410793
(F0.027771000000000001
F1
F1
tp659
sI361642
(F2.2111000000000001
F1
F1.232
tp660
sI362295
(F0.044609999999999997
F0.57430000000000003
F0.91651499999999997
tp661
sI304307
(F29.463999999999999
F1
F1
tp662
sI304308
(F2.1663999999999999
F1
F1
tp663
sI304309
(F0.045998999999999998
F1
F1
tp664
sI410806
(F29.314
F1
F1
tp665
sI410807
(F29.312000000000001
F1
F1
tp666
sI361664
(F13960
F0.051407000000000001
F1
tp667
sI361665
(F6621.5
F0.26644000000000001
F1
tp668
sI410818
(F29.614000000000001
F0.47865000000000002
F1
tp669
sI410819
(F29.602
F0.47608
F1
tp670
sI361668
(F13960
F0.00059234000000000001
F1
tp671
sI361669
(F6621.8000000000002
F0.015147000000000001
F1
tp672
sI362017
(F11771
F0.080496054126200006
F0.92620040390000002
tp673
sI410824
(F14.087999999999999
F1
F1
tp674
sI410825
(F14.089
F1
F1
tp675
sI410826
(F29.318000000000001
F1
F1
tp676
sI410827
(F29.315999999999999
F1
F1
tp677
sI362018
(F11418
F0.0798206442732
F0.954727467
tp678
sI362019
(F12254
F0.0807488908403
F0.90417623999999996
tp679
sI410838
(F29.582000000000001
F0.47620000000000001
F1
tp680
sI410839
(F29.579999999999998
F0.47643000000000002
F1
tp681
sI362020
(F12147
F0.079051780959499995
F0.89624574454999995
tp682
sI362021
(F11668
F0.080737966202700004
F0.93934288119999998
tp683
sI362022
(F12162
F0.078823057506700003
F0.89425140940000003
tp684
sI362023
(F11802
F0.081056891282500002
F0.92907558079999997
tp685
sI362024
(F410.56
F0.64826603155999996
F0.91400053039999996
tp686
sI362025
(F418.04000000000002
F0.65921988375399998
F0.92620040390000002
tp687
sI362026
(F411.25999999999999
F0.65428810688100003
F0.954727467
tp688
sI410884
(F1.5792999999999999
F1
F1
tp689
sI410885
(F1.5778000000000001
F1
F1
tp690
sI410896
(F1.5792999999999999
F1
F1
tp691
sI410897
(F1.5791999999999999
F1
F1
tp692
sI362041
(F418.04000000000002
F0.12587438774500001
F0.92620040390000002
tp693
sI362042
(F411.25999999999999
F0.12854696322299999
F0.954727467
tp694
sI362043
(F423.01999999999998
F0.13099884535799999
F0.90417623999999996
tp695
sI410980
(F21.558
F1
F1
tp696
sI410981
(F21.558
F1
F1
tp697
sI410982
(F44.857999999999997
F1
F1
tp698
sI410983
(F44.854999999999997
F1
F1
tp699
sI410984
(F21.558
F1
F1
tp700
sI410985
(F21.559000000000001
F1
F1
tp701
sI410986
(F44.857999999999997
F1
F1
tp702
sI410987
(F44.854999999999997
F1
F1
tp703
sI362045
(F378.99000000000001
F0.13018451532299999
F0.93934288119999998
tp704
sI361483
(F0.0075005999999999996
F0.20116999999999999
F0.90129999999999999
tp705
sI362046
(F484.35000000000002
F0.12505463230300001
F0.89425140940000003
tp706
sI362047
(F371.85000000000002
F0.13109177196499999
F0.92907558079999997
tp707
sI362048
(F59.866999999999997
F0.617500253306
F0.91400053039999996
tp708
sI361484
(F2249
F0.95167999999999997
F0.90129999999999999
tp709
sI362051
(F62.280999999999999
F0.61662085929999999
F0.90417623999999996
tp710
sI411032
(F44.854999999999997
F1
F1
tp711
sI429680
(F2040.7
F0.12648000000000001
F1
tp712
sI407109
(F0.78024000000000004
F0.59179999999999999
F1
tp713
sI362303
(F0.044609999999999997
F0.27289999999999998
F0.91651499999999997
tp714
sI361485
(F2254.1999999999998
F0.047895
F0.90129999999999999
tp715
sI361486
(F7.7698999999999998
F0.89271999999999996
F0.90129999999999999
tp716
sI304623
(F23.146000000000001
F1
F1
tp717
sI345584
(F0.20802999999999999
F1
F1
tp718
sI345585
(F0.16383
F1
F1
tp719
sI304626
(F0.035314999999999999
F1
F1
tp720
sI304627
(F0.0038008
F1
F1
tp721
sI304628
(F10.455
F1
F1
tp722
sI304629
(F0.67488000000000004
F1
F1
tp723
sI304630
(F0.12506999999999999
F1
F1
tp724
sI304631
(F0.015796999999999999
F1
F1
tp725
sI304632
(F0.0017049999999999999
F1
F1
tp726
sI362000
(F11966
F0.77631600395900002
F0.91400053039999996
tp727
sI362001
(F11771
F0.77808248374900002
F0.92620040390000002
tp728
sI362002
(F11418
F0.77802253277
F0.954727467
tp729
sI362003
(F12254
F0.77904343929999997
F0.90417623999999996
tp730
sI362004
(F12147
F0.779439192492
F0.89624574454999995
tp731
sI362005
(F11668
F0.778617239864
F0.93934288119999998
tp732
sI362006
(F12162
F0.78031990647000005
F0.89425140940000003
tp733
sI362007
(F11802
F0.777836843281
F0.92907558079999997
tp734
sI362008
(F11966
F0.14167378996999999
F0.91400053039999996
tp735
sI362009
(F11771
F0.14058126916899999
F0.92620040390000002
tp736
sI362010
(F11418
F0.14195402800000001
F0.954727467
tp737
sI362011
(F12254
F0.140040650593
F0.90417623999999996
tp738
sI362012
(F12147
F0.140776476673
F0.89624574454999995
tp739
sI362013
(F11668
F0.13954800707699999
F0.93934288119999998
tp740
sI362014
(F12162
F0.139589207444
F0.89425140940000003
tp741
sI362015
(F11802
F0.140689827588
F0.92907558079999997
tp742
sI362016
(F11966
F0.081907960499499999
F0.91400053039999996
tp743
sI304673
(F13.525
F1
F1
tp744
sI304674
(F0.92071000000000003
F1
F1
tp745
sI304675
(F0.17530000000000001
F1
F1
tp746
sI304676
(F0.02179
F1
F1
tp747
sI304677
(F0.0022739000000000001
F1
F1
tp748
sI304678
(F5.4722999999999997
F1
F1
tp749
sI304679
(F0.37030000000000002
F1
F1
tp750
sI304680
(F0.070597999999999994
F1
F1
tp751
sI304681
(F0.0088535000000000003
F1
F1
tp752
sI304682
(F0.00090010000000000003
F1
F1
tp753
sI362027
(F423.01999999999998
F0.65174472307999998
F0.90417623999999996
tp754
sI362028
(F458.32999999999998
F0.65304695894800002
F0.89624574454999995
tp755
sI362029
(F378.99000000000001
F0.65589247786799998
F0.93934288119999998
tp756
sI362030
(F484.35000000000002
F0.66329167582100002
F0.89425140940000003
tp757
sI362031
(F371.85000000000002
F0.64843272821200004
F0.92907558079999997
tp758
sI362032
(F410.56
F0.219443248097
F0.91400053039999996
tp759
sI362033
(F418.04000000000002
F0.216756486695
F0.92620040390000002
tp760
sI362034
(F411.25999999999999
F0.218390751174
F0.954727467
tp761
sI362035
(F423.01999999999998
F0.216921747394
F0.90417623999999996
tp762
sI362036
(F458.32999999999998
F0.21927178454999999
F0.89624574454999995
tp763
sI362037
(F378.99000000000001
F0.21659155583600001
F0.93934288119999998
tp764
sI362038
(F484.35000000000002
F0.21154404539900001
F0.89425140940000003
tp765
sI362039
(F371.85000000000002
F0.21924107616800001
F0.92907558079999997
tp766
sI362040
(F410.56
F0.133852046339
F0.91400053039999996
tp767
sI304697
(F3.0678999999999998
F1
F1
tp768
sI304698
(F3.0678999999999998
F1
F1
tp769
sI304699
(F0.077418000000000001
F1
F1
tp770
sI304700
(F0.075426999999999994
F1
F1
tp771
sI304701
(F3.0592000000000001
F1
F1
tp772
sI304702
(F3.0657999999999999
F1
F1
tp773
sI304703
(F0.075527999999999998
F1
F1
tp774
sI304704
(F0.077503000000000002
F1
F1
tp775
sI362049
(F64.284999999999997
F0.62115379582399999
F0.92620040390000002
tp776
sI362050
(F62.093000000000004
F0.61930169160199999
F0.954727467
tp777
sI304707
(F12.583
F1
F1
tp778
sI304708
(F0.90595999999999999
F1
F1
tp779
sI304709
(F0.018384000000000001
F1
F1
tp780
sI362054
(F71.191999999999993
F0.62639206069999998
F0.89425140940000003
tp781
sI362055
(F55.762
F0.61751166056999995
F0.92907558079999997
tp782
sI362056
(F59.866999999999997
F0.244643364222
F0.91400053039999996
tp783
sI362057
(F64.284999999999997
F0.242388252158
F0.92620040390000002
tp784
sI362058
(F62.093000000000004
F0.23973068341199999
F0.954727467
tp785
sI362059
(F62.280999999999999
F0.23770591538399999
F0.90417623999999996
tp786
sI362060
(F69.805999999999997
F0.24427406956799999
F0.89624574454999995
tp787
sI362061
(F55.081000000000003
F0.2371668626
F0.93934288119999998
tp788
sI362062
(F71.191999999999993
F0.23313300620399999
F0.89425140940000003
tp789
sI362063
(F55.762
F0.240079205845
F0.92907558079999997
tp790
sI362064
(F59.866999999999997
F0.14938065504799999
F0.91400053039999996
tp791
sI362065
(F64.284999999999997
F0.143316507373
F0.92620040390000002
tp792
sI362066
(F62.093000000000004
F0.14587617564899999
F0.954727467
tp793
sI407139
(F0.0011822
F0.55501
F1
tp794
sI362068
(F69.805999999999997
F0.15603401542500001
F0.89624574454999995
tp795
sI362069
(F55.081000000000003
F0.142540684626
F0.93934288119999998
tp796
sI362070
(F71.191999999999993
F0.1404749331
F0.89425140940000003
tp797
sI362071
(F55.762
F0.14765816448399999
F0.92907558079999997
tp798
sI362072
(F4.0857999999999999
F0.58749178796299995
F1.0054005834599999
tp799
sI362073
(F4.5537999999999998
F0.59254356886500004
F1.01882044433
tp800
sI362074
(F4.2209000000000003
F0.59253652461700002
F1.0502
tp801
sI362075
(F4.3314000000000004
F0.59206400002899995
F0.99459386403600003
tp802
sI362076
(F4.9611000000000001
F0.57745992244199995
F0.98587031900099997
tp803
sI362077
(F3.7250999999999999
F0.60096694644500004
F1.03327716933
tp804
sI362078
(F4.7210999999999999
F0.59385494245000003
F0.98367655037400004
tp805
sI362079
(F3.9493999999999998
F0.593295358833
F1.02198313891
tp806
sI362080
(F4.0857999999999999
F0.25429741460900002
F1.0054005834599999
tp807
sI362081
(F4.5537999999999998
F0.255710492515
F1.01882044433
tp808
sI362082
(F4.2209000000000003
F0.25469553202900003
F1.0502
tp809
sI362083
(F4.3314000000000004
F0.25633657288
F0.99459386403600003
tp810
sI362084
(F4.9611000000000001
F0.26341167235700003
F0.98587031900099997
tp811
sI362085
(F3.7250999999999999
F0.25016112014800002
F1.03327716933
tp812
sI362086
(F4.7210999999999999
F0.25385439644699997
F0.98367655037400004
tp813
sI362087
(F3.9493999999999998
F0.25685497789599998
F1.02198313891
tp814
sI362088
(F4.0857999999999999
F0.15996479834999999
F1.0054005834599999
tp815
sI362089
(F4.5537999999999998
F0.15392223333800001
F1.01882044433
tp816
sI362090
(F4.2209000000000003
F0.15417639978299999
F1.0502
tp817
sI362091
(F4.3314000000000004
F0.154736363249
F0.99459386403600003
tp818
sI362092
(F4.9611000000000001
F0.16205118415700001
F0.98587031900099997
tp819
sI362093
(F3.7250999999999999
F0.15005768899899999
F1.03327716933
tp820
sI362094
(F4.7210999999999999
F0.152768973961
F0.98367655037400004
tp821
sI362095
(F3.9493999999999998
F0.15454184211700001
F1.02198313891
tp822
sI362096
(F0.24060000000000001
F0.57078798371299999
F1.0054005834599999
tp823
sI362097
(F0.27605000000000002
F0.56470482990000004
F1.01882044433
tp824
sI362098
(F0.24998999999999999
F0.57506219238099998
F1.0502
tp825
sI362099
(F0.26229000000000002
F0.57359713478399998
F0.99459386403600003
tp826
sI362100
(F0.30541000000000001
F0.56119023160500003
F0.98587031900099997
tp827
sI362101
(F0.21845999999999999
F0.584427212438
F1.03327716933
tp828
sI362102
(F0.27398
F0.579072567968
F0.98367655037400004
tp829
sI362103
(F0.244756
F0.57211714949000003
F1.02198313891
tp830
sI362104
(F0.24060000000000001
F0.27191160205199999
F1.0054005834599999
tp831
sI362105
(F0.27605000000000002
F0.274285026002
F1.01882044433
tp832
sI362106
(F0.24998999999999999
F0.26684128927299999
F1.0502
tp833
sI362107
(F0.26229000000000002
F0.267347528848
F0.99459386403600003
tp834
sI362108
(F0.30541000000000001
F0.27894434294100001
F0.98587031900099997
tp835
sI362109
(F0.21845999999999999
F0.262360373162
F1.03327716933
tp836
sI362110
(F0.27398
F0.26913614170799999
F0.98367655037400004
tp837
sI362111
(F0.24475
F0.26913614170799999
F1.02198313891
tp838
sI362112
(F0.24060000000000001
F0.16505946504800001
F1.0054005834599999
tp839
sI362113
(F0.27605000000000002
F0.161010440654
F1.01882044433
tp840
sI362114
(F0.24998999999999999
F0.163825025992
F1.0502
tp841
sI362115
(F0.26229000000000002
F0.15971973116099999
F0.99459386403600003
tp842
sI362116
(F0.30541000000000001
F0.17084247703
F0.98587031900099997
tp843
sI362117
(F0.21845999999999999
F0.156288935475
F1.03327716933
tp844
sI362118
(F0.27398
F0.16309989524599999
F0.98367655037400004
tp845
sI362119
(F0.24475
F0.163020466847
F1.02198313891
tp846
sI362120
(F0.042389999999999997
F0.5579299003
F1.0054005834599999
tp847
sI362121
(F0.048280999999999998
F0.56670231627599998
F1.01882044433
tp848
sI362122
(F0.043050999999999999
F0.56198403757500004
F1.0502
tp849
sI362123
(F0.045435999999999997
F0.56427604246600005
F0.99459386403600003
tp850
sI362124
(F0.054108000000000003
F0.54952446291199997
F0.98587031900099997
tp851
sI362125
(F0.037860999999999999
F0.56920228000399997
F1.03327716933
tp852
sI362126
(F0.046898000000000002
F0.60197266698200003
F0.98367655037400004
tp853
sI362127
(F0.042971000000000002
F0.57250240854000001
F1.02198313891
tp854
sI362128
(F0.042389999999999997
F0.27417087087199998
F1.0054005834599999
tp855
sI362129
(F0.048280999999999998
F0.28198510877499999
F1.01882044433
tp856
sI345746
(F5949.1000000000004
F0.021139999999999999
F1
tp857
sI345747
(F825.55999999999995
F0.084401000000000004
F1
tp858
sI345748
(F263.23000000000002
F0.28684999999999999
F1
tp859
sI345749
(F74.305999999999997
F0.48176999999999998
F1
tp860
sI345750
(F31.548999999999999
F0.66479999999999995
F1
tp861
sI362135
(F0.042971000000000002
F0.278700773259
F1.02198313891
tp862
sI362136
(F0.042389999999999997
F0.16789912882999999
F1.0054005834599999
tp863
sI362137
(F0.048280999999999998
F0.16390526385099999
F1.01882044433
tp864
sI362138
(F0.043050999999999999
F0.16835872345299999
F1.0502
tp865
sI362139
(F0.045435999999999997
F0.16182048572999999
F0.99459386403600003
tp866
sI362140
(F0.054108000000000003
F0.175383226512
F0.98587031900099997
tp867
sI362141
(F0.037860999999999999
F0.16013044407599999
F1.03327716933
tp868
sI362142
(F0.046898000000000002
F0.16429418767100001
F0.98367655037400004
tp869
sI362143
(F0.042971000000000002
F0.14879681819999999
F1.02198313891
tp870
sI362144
(F0.0055364999999999998
F0.56773084649899996
F1.0054005834599999
tp871
sI362145
(F0.0064980000000000003
F0.53318607179999999
F1.01882044433
tp872
sI362146
(F0.0055227999999999996
F0.56024567131900005
F1.0502
tp873
sI362147
(F0.0057948000000000001
F0.55475776621799999
F0.99459386403600003
tp874
sI362148
(F0.0079666000000000008
F0.54605708884399995
F0.98587031900099997
tp875
sI362149
(F0.0047701999999999996
F0.56362114815599995
F1.03327716933
tp876
sI362150
(F0.0058481999999999996
F0.55765178955399997
F0.98367655037400004
tp877
sI407153
(F0.77905999999999997
F0.15223999999999999
F1
tp878
sI362152
(F0.0055364999999999998
F0.286149330107
F1.0054005834599999
tp879
sI362153
(F0.0064980000000000003
F0.28467868022800003
F1.01882044433
tp880
sI362154
(F0.0055227999999999996
F0.29079515379699999
F1.0502
tp881
sI362155
(F0.0057948000000000001
F0.28804588624900002
F0.99459386403600003
tp882
sI362156
(F0.0079666000000000008
F0.303383129822
F0.98587031900099997
tp883
sI362157
(F0.0047701999999999996
F0.27950536624299999
F1.03327716933
tp884
sI362158
(F0.0058481999999999996
F0.28767023169900002
F0.98367655037400004
tp885
sI345775
(F20.920000000000002
F1
F1
tp886
sI345776
(F10.164999999999999
F0.87195999999999996
F1
tp887
sI345777
(F10.178000000000001
F0.11554
F1
tp888
sI345778
(F10.185
F0.012918000000000001
F1
tp889
sI345779
(F20.952000000000002
F1
F1
tp890
sI345780
(F10.177
F0.87016000000000004
F1
tp891
sI345781
(F10.185
F0.11720999999999999
F1
tp892
sI345782
(F10.188000000000001
F0.012965000000000001
F1
tp893
sI345783
(F27.923999999999999
F1
F1
tp894
sI304824
(F197.94
F1
F1
tp895
sI304825
(F87.001999999999995
F1
F1
tp896
sI362170
(F2.3913e-05
F0.60554629709499996
F1.0502
tp897
sI362171
(F2.4499999999999999e-05
F0.55868402809200002
F0.99459386403600003
tp898
sI362172
(F3.0750000000000002e-05
F0.60551544628200005
F0.98587031900099997
tp899
sI362173
(F1.9847000000000002e-05
F0.57522854666599998
F1.03327716933
tp900
sI362174
(F2.3961e-05
F0.56001358709500004
F0.98367655037400004
tp901
sI362175
(F2.6213000000000001e-05
F0.57477071343700004
F1.02198313891
tp902
sI362176
(F2.3731999999999999e-05
F0.34968118129100001
F1.0054005834599999
tp903
sI362177
(F2.9201999999999999e-05
F0.33612764109999999
F1.01882044433
tp904
sI362178
(F2.3913e-05
F0.33566085357300002
F1.0502
tp905
sI362179
(F2.4499999999999999e-05
F0.28861238804200001
F0.99459386403600003
tp906
sI362180
(F3.0750000000000002e-05
F0.3480191997
F0.98587031900099997
tp907
sI362181
(F1.9847000000000002e-05
F0.30929060932500002
F1.03327716933
tp908
sI362182
(F2.3961e-05
F0.33663945425800001
F0.98367655037400004
tp909
sI362183
(F2.6213000000000001e-05
F0.32266660354999999
F1.02198313891
tp910
sI362184
(F2.3731999999999999e-05
F0.21172611112600001
F1.0054005834599999
tp911
sI362185
(F2.9201999999999999e-05
F0.21466434552999999
F1.01882044433
tp912
sI362186
(F2.3913e-05
F0.23566734739
F1.0502
tp913
sI407159
(F0.0087691999999999996
F0.16112000000000001
F1
tp914
sI362188
(F3.0750000000000002e-05
F0.220474953877
F0.98587031900099997
tp915
sI362189
(F1.9847000000000002e-05
F0.190020404334
F1.03327716933
tp916
sI362190
(F2.3961e-05
F0.193093017058
F0.98367655037400004
tp917
sI362191
(F2.6213000000000001e-05
F0.21533084020099999
F1.02198313891
tp918
sI362192
(F2212
F0.77590000000000003
F0.89980099999999996
tp919
sI362193
(F2175
F0.77929999999999999
F0.91361999999999999
tp920
sI362194
(F2107
F0.77839999999999998
F0.94292399999999998
tp921
sI362195
(F2258
F0.78010000000000002
F0.88133799999999995
tp922
sI362196
(F2236
F0.7802
F0.88645499999999999
tp923
sI362197
(F2153
F0.7782
F0.92640599999999995
tp924
sI362198
(F2240
F0.78110000000000002
F0.88350399999999996
tp925
sI362199
(F2178
F0.77769999999999995
F0.91651499999999997
tp926
sI362200
(F2212
F0.14360000000000001
F0.89980099999999996
tp927
sI362201
(F2175
F0.14199999999999999
F0.91361999999999999
tp928
sI362202
(F2107
F0.14280000000000001
F0.94292399999999998
tp929
sI363471
(F6.0773000000000001
F0.12525
F0.97019999999999995
tp930
sI362204
(F2236
F0.1424
F0.88645499999999999
tp931
sI362205
(F2153
F0.1414
F0.92640599999999995
tp932
sI362206
(F2240
F0.14130000000000001
F0.88350399999999996
tp933
sI362207
(F2178
F0.1424
F0.91651499999999997
tp934
sI362208
(F2212
F0.080670000000000006
F0.89980099999999996
tp935
sI362209
(F2175
F0.079189999999999997
F0.91361999999999999
tp936
sI362210
(F2107
F0.07893
F0.94292399999999998
tp937
sI362211
(F2258
F0.078969999999999999
F0.88133799999999995
tp938
sI362212
(F2236
F0.078170000000000003
F0.88645499999999999
tp939
sI362213
(F2153
F0.080009999999999998
F0.92640599999999995
tp940
sI362214
(F2240
F0.078229999999999994
F0.88350399999999996
tp941
sI362215
(F2178
F0.079869999999999997
F0.91651499999999997
tp942
sI362216
(F73.219999999999999
F0.64629999999999999
F0.89980099999999996
tp943
sI362217
(F74.469999999999999
F0.65820000000000001
F0.91361999999999999
tp944
sI362218
(F73.030000000000001
F0.65439999999999998
F0.94292399999999998
tp945
sI362219
(F75.109999999999999
F0.65180000000000005
F0.88133799999999995
tp946
sI362220
(F81.969999999999999
F0.6512
F0.88645499999999999
tp947
sI362221
(F67.319999999999993
F0.6522
F0.92640599999999995
tp948
sI362222
(F86.040000000000006
F0.66259999999999997
F0.88350399999999996
tp949
sI407165
(F10919
F0.088334999999999997
F1
tp950
sI362224
(F73.219999999999999
F0.22239999999999999
F0.89980099999999996
tp951
sI362225
(F74.469999999999999
F0.21759999999999999
F0.91361999999999999
tp952
sI362226
(F73.030000000000001
F0.22009999999999999
F0.94292399999999998
tp953
sI429011
(F1901.0999999999999
F1
F1
tp954
sI362228
(F81.969999999999999
F0.2223
F0.88645499999999999
tp955
sI362229
(F67.319999999999993
F0.21859999999999999
F0.92640599999999995
tp956
sI362230
(F86.040000000000006
F0.2145
F0.88350399999999996
tp957
sI362231
(F65.930000000000007
F0.21959999999999999
F0.91651499999999997
tp958
sI362232
(F73.219999999999999
F0.1376
F0.89980099999999996
tp959
sI362233
(F74.469999999999999
F0.129
F0.91361999999999999
tp960
sI362234
(F73.030000000000001
F0.1273
F0.94292399999999998
tp961
sI362235
(F75.109999999999999
F0.12989999999999999
F0.88133799999999995
tp962
sI362236
(F81.969999999999999
F0.12989999999999999
F0.88645499999999999
tp963
sI362237
(F67.319999999999993
F0.1293
F0.92640599999999995
tp964
sI362238
(F86.040000000000006
F0.12479999999999999
F0.88350399999999996
tp965
sI362239
(F65.930000000000007
F0.13009999999999999
F0.91651499999999997
tp966
sI362240
(F10.65
F0.61539999999999995
F0.89980099999999996
tp967
sI362241
(F11.470000000000001
F0.62829999999999997
F0.91361999999999999
tp968
sI362242
(F10.99
F0.61839999999999995
F0.94292399999999998
tp969
sI362243
(F11.039999999999999
F0.61750000000000005
F0.88133799999999995
tp970
sI362244
(F12.470000000000001
F0.60899999999999999
F0.88645499999999999
tp971
sI362245
(F9.766
F0.62329999999999997
F0.92640599999999995
tp972
sI362246
(F12.630000000000001
F0.62629999999999997
F0.88350399999999996
tp973
sI407169
(F59.975000000000001
F0.61436999999999997
F1
tp974
sI362248
(F10.65
F0.24429999999999999
F0.89980099999999996
tp975
sI362249
(F11.470000000000001
F0.24279999999999999
F0.91361999999999999
tp976
sI362250
(F10.99
F0.2387
F0.94292399999999998
tp977
sI362251
(F11.039999999999999
F0.23860000000000001
F0.88133799999999995
tp978
sI362252
(F12.470000000000001
F0.24429999999999999
F0.88645499999999999
tp979
sI362253
(F9.766
F0.23499999999999999
F0.92640599999999995
tp980
sI362254
(F12.630000000000001
F0.23569999999999999
F0.88350399999999996
tp981
sI362255
(F9.8320000000000007
F0.2429
F0.91651499999999997
tp982
sI362256
(F10.65
F0.14910000000000001
F0.89980099999999996
tp983
sI362257
(F11.470000000000001
F0.14299999999999999
F0.91361999999999999
tp984
sI362258
(F10.99
F0.1449
F0.94292399999999998
tp985
sI407171
(F60.039999999999999
F0.14677000000000001
F1
tp986
sI362260
(F12.470000000000001
F0.15290000000000001
F0.88645499999999999
tp987
sI362261
(F9.766
F0.14180000000000001
F0.92640599999999995
tp988
sI362262
(F12.630000000000001
F0.1389
F0.88350399999999996
tp989
sI362263
(F9.8320000000000007
F0.14560000000000001
F0.91651499999999997
tp990
sI362264
(F0.7298
F0.59199999999999997
F0.89980099999999996
tp991
sI362265
(F0.81630000000000003
F0.59389999999999998
F0.91361999999999999
tp992
sI362266
(F0.75800000000000001
F0.59179999999999999
F0.94292399999999998
tp993
sI362267
(F0.77629999999999999
F0.59230000000000005
F0.88133799999999995
tp994
sI362268
(F0.89649999999999996
F0.57950000000000002
F0.88645499999999999
tp995
sI362269
(F0.66539999999999999
F0.59970000000000001
F0.92640599999999995
tp996
sI362270
(F0.84689999999999999
F0.59819999999999995
F0.88350399999999996
tp997
sI362271
(F0.71340000000000003
F0.59230000000000005
F0.91651499999999997
tp998
sI362272
(F0.7298
F0.2641
F0.89980099999999996
tp999
sI362273
(F0.81630000000000003
F0.2631
F0.91361999999999999
tp1000
sI362274
(F0.75800000000000001
F0.25829999999999997
F0.94292399999999998
tp1001
sI362275
(F0.77629999999999999
F0.25829999999999997
F0.88133799999999995
tp1002
sI362276
(F0.89649999999999996
F0.26379999999999998
F0.88645499999999999
tp1003
sI362277
(F0.66539999999999999
F0.25330000000000003
F0.92640599999999995
tp1004
sI362278
(F0.84689999999999999
F0.25269999999999998
F0.88350399999999996
tp1005
sI362279
(F0.71340000000000003
F0.26029999999999998
F0.91651499999999997
tp1006
sI362280
(F0.7298
F0.1593
F0.89980099999999996
tp1007
sI362281
(F0.81630000000000003
F0.15409999999999999
F0.91361999999999999
tp1008
sI362282
(F0.75800000000000001
F0.15329999999999999
F0.94292399999999998
tp1009
sI362283
(F0.77629999999999999
F0.14940000000000001
F0.88133799999999995
tp1010
sI362284
(F0.89649999999999996
F0.1585
F0.88645499999999999
tp1011
sI362285
(F0.66539999999999999
F0.14990000000000001
F0.92640599999999995
tp1012
sI362286
(F0.84689999999999999
F0.15140000000000001
F0.88350399999999996
tp1013
sI362287
(F0.71340000000000003
F0.15210000000000001
F0.91651499999999997
tp1014
sI362288
(F0.044170000000000001
F0.57489999999999997
F0.89980099999999996
tp1015
sI362289
(F0.05076
F0.57399999999999995
F0.91361999999999999
tp1016
sI362290
(F0.045650000000000003
F0.56620000000000004
F0.94292399999999998
tp1017
sI362291
(F0.047120000000000002
F0.57279999999999998
F0.88133799999999995
tp1018
sI362292
(F0.055509999999999997
F0.5585
F0.88645499999999999
tp1019
sI362293
(F0.039609999999999999
F0.58320000000000005
F0.92640599999999995
tp1020
sI362294
(F0.04956
F0.57420000000000004
F0.88350399999999996
tp1021
sI407177
(F0.26860000000000001
F0.15842999999999999
F1
tp1022
sI362296
(F0.044170000000000001
F0.27400000000000002
F0.89980099999999996
tp1023
sI362297
(F0.05076
F0.27489999999999998
F0.91361999999999999
tp1024
sI362298
(F0.045650000000000003
F0.27460000000000001
F0.94292399999999998
tp1025
sI362299
(F0.047120000000000002
F0.26879999999999998
F0.88133799999999995
tp1026
sI362300
(F0.055509999999999997
F0.28460000000000002
F0.88645499999999999
tp1027
sI362301
(F0.039609999999999999
F0.26479999999999998
F0.92640599999999995
tp1028
sI362302
(F0.04956
F0.2666
F0.88350399999999996
tp1029
sI362044
(F458.32999999999998
F0.12988560148799999
F0.89624574454999995
tp1030
sI362304
(F0.044170000000000001
F0.18190000000000001
F0.89980099999999996
tp1031
sI362305
(F0.05076
F0.17879999999999999
F0.91361999999999999
tp1032
sI362306
(F0.045650000000000003
F0.16900000000000001
F0.94292399999999998
tp1033
sI362307
(F0.047120000000000002
F0.16209999999999999
F0.88133799999999995
tp1034
sI362308
(F0.055509999999999997
F0.17960000000000001
F0.88645499999999999
tp1035
sI362309
(F0.039609999999999999
F0.1575
F0.92640599999999995
tp1036
sI362310
(F0.04956
F0.161
F0.88350399999999996
tp1037
sI362311
(F0.044609999999999997
F0.1671
F0.91651499999999997
tp1038
sI362312
(F0.007646
F0.627
F0.89980099999999996
tp1039
sI362313
(F0.0090030000000000006
F0.60409999999999997
F0.91361999999999999
tp1040
sI362314
(F0.008012
F0.61639999999999995
F0.94292399999999998
tp1041
sI362315
(F0.0083840000000000008
F0.61199999999999999
F0.88133799999999995
tp1042
sI362316
(F0.0099830000000000006
F0.61639999999999995
F0.88645499999999999
tp1043
sI362317
(F0.0069109999999999996
F0.61909999999999998
F0.92640599999999995
tp1044
sI362318
(F0.008744
F0.61799999999999999
F0.88350399999999996
tp1045
sI362319
(F0.0079279999999999993
F0.60899999999999999
F0.91651499999999997
tp1046
sI362320
(F0.007646
F0.28149999999999997
F0.89980099999999996
tp1047
sI362321
(F0.0090030000000000006
F0.2868
F0.91361999999999999
tp1048
sI362322
(F0.008012
F0.28389999999999999
F0.94292399999999998
tp1049
sI362323
(F0.0083840000000000008
F0.28460000000000002
F0.88133799999999995
tp1050
sI362324
(F0.0099830000000000006
F0.28389999999999999
F0.88645499999999999
tp1051
sI362325
(F0.0069109999999999996
F0.2661
F0.92640599999999995
tp1052
sI362326
(F0.008744
F0.26229999999999998
F0.88350399999999996
tp1053
sI362327
(F0.0079279999999999993
F0.28129999999999999
F0.91651499999999997
tp1054
sI362328
(F0.007646
F0.1845
F0.89980099999999996
tp1055
sI362329
(F0.0090030000000000006
F0.18110000000000001
F0.91361999999999999
tp1056
sI362330
(F0.008012
F0.17319999999999999
F0.94292399999999998
tp1057
sI407183
(F0.0064412000000000002
F0.16650000000000001
F1
tp1058
sI362332
(F0.0099830000000000006
F0.17319999999999999
F0.88645499999999999
tp1059
sI362333
(F0.0069109999999999996
F0.15939999999999999
F0.92640599999999995
tp1060
sI362334
(F0.008744
F0.16639999999999999
F0.88350399999999996
tp1061
sI362335
(F0.0079279999999999993
F0.1731
F0.91651499999999997
tp1062
sI362336
(F0.00098909999999999992
F0.54910000000000003
F0.89980099999999996
tp1063
sI362337
(F0.00116
F0.56530000000000002
F0.91361999999999999
tp1064
sI362338
(F0.001016
F0.56530000000000002
F0.94292399999999998
tp1065
sI362339
(F0.0010759999999999999
F0.55089999999999995
F0.88133799999999995
tp1066
sI362340
(F0.0013010000000000001
F0.54459999999999997
F0.88645499999999999
tp1067
sI362341
(F0.00088520000000000005
F0.56759999999999999
F0.92640599999999995
tp1068
sI362342
(F0.0010759999999999999
F0.56759999999999999
F0.88350399999999996
tp1069
sI362343
(F0.001031
F0.54900000000000004
F0.91651499999999997
tp1070
sI362344
(F0.00098909999999999992
F0.29680000000000001
F0.89980099999999996
tp1071
sI362345
(F0.00116
F0.2838
F0.91361999999999999
tp1072
sI362346
(F0.001016
F0.2838
F0.94292399999999998
tp1073
sI362347
(F0.0010759999999999999
F0.28720000000000001
F0.88133799999999995
tp1074
sI362348
(F0.0013010000000000001
F0.30349999999999999
F0.88645499999999999
tp1075
sI362130
(F0.043050999999999999
F0.28397871581200002
F1.0502
tp1076
sI362350
(F0.0010759999999999999
F0.28760000000000002
F0.88350399999999996
tp1077
sI362351
(F0.001031
F0.29360000000000003
F0.91651499999999997
tp1078
sI362352
(F0.00098909999999999992
F0.18559999999999999
F0.89980099999999996
tp1079
sI362353
(F0.00116
F0.15090000000000001
F0.91361999999999999
tp1080
sI362354
(F0.001016
F0.15090000000000001
F0.94292399999999998
tp1081
sI362131
(F0.045435999999999997
F0.27257681797599997
F0.99459386403600003
tp1082
sI362356
(F0.0013010000000000001
F0.1817
F0.88645499999999999
tp1083
sI362357
(F0.00088520000000000005
F0.16500000000000001
F0.92640599999999995
tp1084
sI362358
(F0.0010759999999999999
F0.16500000000000001
F0.88350399999999996
tp1085
sI362359
(F0.001031
F0.17860000000000001
F0.91651499999999997
tp1086
sI362360
(F4.4190000000000004e-06
F0.54369999999999996
F0.89980099999999996
tp1087
sI362132
(F0.054108000000000003
F0.28909339457900002
F0.98587031900099997
tp1088
sI362362
(F4.0999999999999997e-06
F0.50529999999999997
F0.94292399999999998
tp1089
sI362363
(F4.481e-06
F0.52339999999999998
F0.88133799999999995
tp1090
sI362364
(F5.3730000000000001e-06
F0.54559999999999997
F0.88645499999999999
tp1091
sI362365
(F3.6619999999999998e-06
F0.56520000000000004
F0.92640599999999995
tp1092
sI362366
(F4.3019999999999996e-06
F0.56510000000000005
F0.88350399999999996
tp1093
sI362133
(F0.037860999999999999
F0.27201902013899998
F1.03327716933
tp1094
sI362368
(F4.4190000000000004e-06
F0.32119999999999999
F0.89980099999999996
tp1095
sI362369
(F5.609e-06
F0.2412
F0.91361999999999999
tp1096
sI362370
(F4.0999999999999997e-06
F0.30640000000000001
F0.94292399999999998
tp1097
sI362371
(F4.481e-06
F0.29449999999999998
F0.88133799999999995
tp1098
sI362372
(F5.3730000000000001e-06
F0.31780000000000003
F0.88645499999999999
tp1099
sI362134
(F0.046898000000000002
F0.28018132148699998
F0.98367655037400004
tp1100
sI362374
(F4.3019999999999996e-06
F0.29420000000000002
F0.88350399999999996
tp1101
sI362375
(F4.3839999999999999e-06
F0.33050000000000002
F0.91651499999999997
tp1102
sI362376
(F4.4190000000000004e-06
F0.2074
F0.89980099999999996
tp1103
sI362377
(F5.609e-06
F0.21510000000000001
F0.91361999999999999
tp1104
sI362378
(F4.0999999999999997e-06
F0.1883
F0.94292399999999998
tp1105
sI362379
(F4.481e-06
F0.17530000000000001
F0.88133799999999995
tp1106
sI362380
(F5.3730000000000001e-06
F0.2001
F0.88645499999999999
tp1107
sI362381
(F3.6619999999999998e-06
F0.16919999999999999
F0.92640599999999995
tp1108
sI362382
(F4.3019999999999996e-06
F0.1779
F0.88350399999999996
tp1109
sI362383
(F4.3839999999999999e-06
F0.18629999999999999
F0.91651499999999997
tp1110
sI362384
(F21390
F0.88800000000000001
F0.90836399999999995
tp1111
sI362385
(F21100
F0.89290000000000003
F0.92053200000000002
tp1112
sI362386
(F20390
F0.88980000000000004
F0.95162599999999997
tp1113
sI362387
(F21940
F0.89129999999999998
F0.88654299999999997
tp1114
sI362388
(F21720
F0.88939999999999997
F0.89189799999999997
tp1115
sI362389
(F20910
F0.89249999999999996
F0.93180799999999997
tp1116
sI362390
(F21750
F0.89180000000000004
F0.88932100000000003
tp1117
sI362391
(F21090
F0.89090000000000003
F0.92484500000000003
tp1118
sI362392
(F21390
F0.050750000000000003
F0.90836399999999995
tp1119
sI362393
(F21100
F0.046730000000000001
F0.92053200000000002
tp1120
sI362394
(F20390
F0.049639999999999997
F0.95162599999999997
tp1121
sI362395
(F21940
F0.049000000000000002
F0.88654299999999997
tp1122
sI362396
(F21720
F0.049689999999999998
F0.89189799999999997
tp1123
sI362397
(F20910
F0.048189999999999997
F0.93180799999999997
tp1124
sI362398
(F21750
F0.048590000000000001
F0.88932100000000003
tp1125
sI362399
(F21090
F0.048829999999999998
F0.92484500000000003
tp1126
sI362400
(F21390
F0.06123
F0.90836399999999995
tp1127
sI362401
(F21100
F0.060299999999999999
F0.92053200000000002
tp1128
sI362402
(F20390
F0.060499999999999998
F0.95162599999999997
tp1129
sI362403
(F21940
F0.0596
F0.88654299999999997
tp1130
sI362404
(F21720
F0.06089
F0.89189799999999997
tp1131
sI362405
(F20910
F0.05919
F0.93180799999999997
tp1132
sI362406
(F21750
F0.059459999999999999
F0.88932100000000003
tp1133
sI362407
(F21090
F0.060310000000000002
F0.92484500000000003
tp1134
sI362408
(F616.20000000000005
F0.72219999999999995
F0.90836399999999995
tp1135
sI362409
(F614.89999999999998
F0.7369
F0.92053200000000002
tp1136
sI362410
(F615.5
F0.72889999999999999
F0.95162599999999997
tp1137
sI362411
(F623.20000000000005
F0.72750000000000004
F0.88654299999999997
tp1138
sI362412
(F684.70000000000005
F0.72570000000000001
F0.89189799999999997
tp1139
sI362413
(F560.79999999999995
F0.73199999999999998
F0.93180799999999997
tp1140
sI362414
(F727.70000000000005
F0.7238
F0.88932100000000003
tp1141
sI362415
(F541.79999999999995
F0.7228
F0.92484500000000003
tp1142
sI362416
(F616.20000000000005
F0.17680000000000001
F0.90836399999999995
tp1143
sI362417
(F614.89999999999998
F0.17680000000000001
F0.92053200000000002
tp1144
sI362418
(F615.5
F0.17560000000000001
F0.95162599999999997
tp1145
sI362419
(F623.20000000000005
F0.1764
F0.88654299999999997
tp1146
sI362420
(F684.70000000000005
F0.17699999999999999
F0.89189799999999997
tp1147
sI362421
(F560.79999999999995
F0.17530000000000001
F0.93180799999999997
tp1148
sI362422
(F727.70000000000005
F0.1668
F0.88932100000000003
tp1149
sI362423
(F541.79999999999995
F0.1794
F0.92484500000000003
tp1150
sI362424
(F616.20000000000005
F0.10100000000000001
F0.90836399999999995
tp1151
sI362425
(F614.89999999999998
F0.086300000000000002
F0.92053200000000002
tp1152
sI362426
(F615.5
F0.096350000000000005
F0.95162599999999997
tp1153
sI362427
(F623.20000000000005
F0.095710000000000003
F0.88654299999999997
tp1154
sI362428
(F684.70000000000005
F0.099479999999999999
F0.89189799999999997
tp1155
sI362429
(F560.79999999999995
F0.093689999999999996
F0.93180799999999997
tp1156
sI362430
(F727.70000000000005
F0.09085
F0.88932100000000003
tp1157
sI362431
(F541.79999999999995
F0.097820000000000004
F0.92484500000000003
tp1158
sI362432
(F82.760000000000005
F0.68400000000000005
F0.90836399999999995
tp1159
sI362433
(F87.319999999999993
F0.69340000000000002
F0.92053200000000002
tp1160
sI362434
(F85.290000000000006
F0.68830000000000002
F0.95162599999999997
tp1161
sI362435
(F85.219999999999999
F0.68789999999999996
F0.88654299999999997
tp1162
sI362436
(F97.180000000000007
F0.68830000000000002
F0.89189799999999997
tp1163
sI362437
(F75.269999999999996
F0.69440000000000002
F0.93180799999999997
tp1164
sI362438
(F97.609999999999999
F0.69710000000000005
F0.88932100000000003
tp1165
sI362439
(F76.540000000000006
F0.68430000000000002
F0.92484500000000003
tp1166
sI362440
(F82.760000000000005
F0.2059
F0.90836399999999995
tp1167
sI362441
(F87.319999999999993
F0.2059
F0.92053200000000002
tp1168
sI362442
(F85.290000000000006
F0.2011
F0.95162599999999997
tp1169
sI362443
(F85.219999999999999
F0.2029
F0.88654299999999997
tp1170
sI362444
(F97.180000000000007
F0.2107
F0.89189799999999997
tp1171
sI362445
(F75.269999999999996
F0.19750000000000001
F0.93180799999999997
tp1172
sI362446
(F97.609999999999999
F0.19420000000000001
F0.88932100000000003
tp1173
sI362447
(F76.540000000000006
F0.20449999999999999
F0.92484500000000003
tp1174
sI362448
(F82.760000000000005
F0.1101
F0.90836399999999995
tp1175
sI362449
(F87.319999999999993
F0.1007
F0.92053200000000002
tp1176
sI362450
(F85.290000000000006
F0.1106
F0.95162599999999997
tp1177
sI362451
(F85.219999999999999
F0.1115
F0.88654299999999997
tp1178
sI362452
(F97.180000000000007
F0.10100000000000001
F0.89189799999999997
tp1179
sI362453
(F75.269999999999996
F0.1081
F0.93180799999999997
tp1180
sI362454
(F97.609999999999999
F0.108
F0.88932100000000003
tp1181
sI362455
(F76.540000000000006
F0.11119999999999999
F0.92484500000000003
tp1182
sI362456
(F5.5810000000000004
F0.64829999999999999
F0.90836399999999995
tp1183
sI362457
(F6.0430000000000001
F0.65849999999999997
F0.92053200000000002
tp1184
sI362458
(F5.7149999999999999
F0.65749999999999997
F0.95162599999999997
tp1185
sI362459
(F5.8109999999999999
F0.65910000000000002
F0.88654299999999997
tp1186
sI362460
(F6.7619999999999996
F0.64270000000000005
F0.89189799999999997
tp1187
sI362461
(F4.9989999999999997
F0.66849999999999998
F0.93180799999999997
tp1188
sI362462
(F6.3360000000000003
F0.66000000000000003
F0.88932100000000003
tp1189
sI362463
(F5.383
F0.65759999999999996
F0.92484500000000003
tp1190
sI362464
(F5.5810000000000004
F0.2203
F0.90836399999999995
tp1191
sI362465
(F6.0430000000000001
F0.214
F0.92053200000000002
tp1192
sI362466
(F5.7149999999999999
F0.2142
F0.95162599999999997
tp1193
sI362467
(F5.8109999999999999
F0.2147
F0.88654299999999997
tp1194
sI362468
(F6.7619999999999996
F0.221
F0.89189799999999997
tp1195
sI362469
(F4.9989999999999997
F0.2089
F0.93180799999999997
tp1196
sI362470
(F6.3360000000000003
F0.2104
F0.88932100000000003
tp1197
sI362471
(F5.383
F0.21679999999999999
F0.92484500000000003
tp1198
sI362472
(F5.5810000000000004
F0.13139999999999999
F0.90836399999999995
tp1199
sI362473
(F6.0430000000000001
F0.12970000000000001
F0.92053200000000002
tp1200
sI362474
(F5.7149999999999999
F0.12839999999999999
F0.95162599999999997
tp1201
sI362475
(F5.8109999999999999
F0.1278
F0.88654299999999997
tp1202
sI362476
(F6.7619999999999996
F0.1363
F0.89189799999999997
tp1203
sI362477
(F4.9989999999999997
F0.1226
F0.93180799999999997
tp1204
sI362478
(F6.3360000000000003
F0.12570000000000001
F0.88932100000000003
tp1205
sI362479
(F5.383
F0.12889999999999999
F0.92484500000000003
tp1206
sI362480
(F0.3322
F0.6391
F0.90836399999999995
tp1207
sI362481
(F0.36909999999999998
F0.64570000000000005
F0.92053200000000002
tp1208
sI362482
(F0.34079999999999999
F0.63980000000000004
F0.95162599999999997
tp1209
sI362483
(F0.35220000000000001
F0.63919999999999999
F0.88654299999999997
tp1210
sI362484
(F0.41720000000000002
F0.62319999999999998
F0.89189799999999997
tp1211
sI362485
(F0.29520000000000002
F0.64980000000000004
F0.93180799999999997
tp1212
sI362486
(F0.36909999999999998
F0.64349999999999996
F0.88932100000000003
tp1213
sI362487
(F0.33389999999999997
F0.63770000000000004
F0.92484500000000003
tp1214
sI362488
(F0.3322
F0.22459999999999999
F0.90836399999999995
tp1215
sI362489
(F0.36909999999999998
F0.2195
F0.92053200000000002
tp1216
sI362490
(F0.34079999999999999
F0.2253
F0.95162599999999997
tp1217
sI362491
(F0.35220000000000001
F0.21959999999999999
F0.88654299999999997
tp1218
sI362492
(F0.41720000000000002
F0.23400000000000001
F0.89189799999999997
tp1219
sI362493
(F0.29520000000000002
F0.21279999999999999
F0.93180799999999997
tp1220
sI362494
(F0.36909999999999998
F0.22059999999999999
F0.88932100000000003
tp1221
sI362495
(F0.33389999999999997
F0.2266
F0.92484500000000003
tp1222
sI362496
(F0.3322
F0.14360000000000001
F0.90836399999999995
tp1223
sI362497
(F0.36909999999999998
F0.14249999999999999
F0.92053200000000002
tp1224
sI362498
(F0.34079999999999999
F0.14399999999999999
F0.95162599999999997
tp1225
sI362499
(F0.35220000000000001
F0.14119999999999999
F0.88654299999999997
tp1226
sI362500
(F0.41720000000000002
F0.15190000000000001
F0.89189799999999997
tp1227
sI362501
(F0.29520000000000002
F0.1368
F0.93180799999999997
tp1228
sI362502
(F0.36909999999999998
F0.14169999999999999
F0.88932100000000003
tp1229
sI362503
(F0.33389999999999997
F0.14660000000000001
F0.92484500000000003
tp1230
sI362504
(F0.060569999999999999
F0.62539999999999996
F0.90836399999999995
tp1231
sI362505
(F0.066000000000000003
F0.63429999999999997
F0.92053200000000002
tp1232
sI362506
(F0.059520000000000003
F0.62629999999999997
F0.95162599999999997
tp1233
sI362507
(F0.06225
F0.629
F0.88654299999999997
tp1234
sI362508
(F0.06966
F0.6149
F0.89189799999999997
tp1235
sI362509
(F0.052060000000000002
F0.6149
F0.93180799999999997
tp1236
sI362510
(F0.063799999999999996
F0.63519999999999999
F0.88932100000000003
tp1237
sI362511
(F0.06012
F0.63200000000000001
F0.92484500000000003
tp1238
sI362512
(F0.060569999999999999
F0.23910000000000001
F0.90836399999999995
tp1239
sI362513
(F0.066000000000000003
F0.2225
F0.92053200000000002
tp1240
sI362514
(F0.059520000000000003
F0.2273
F0.95162599999999997
tp1241
sI362515
(F0.06225
F0.2243
F0.88654299999999997
tp1242
sI362516
(F0.06966
F0.2384
F0.89189799999999997
tp1243
sI362517
(F0.052060000000000002
F0.24079999999999999
F0.93180799999999997
tp1244
sI362518
(F0.063799999999999996
F0.2268
F0.88932100000000003
tp1245
sI362519
(F0.06012
F0.22509999999999999
F0.92484500000000003
tp1246
sI362520
(F0.060569999999999999
F0.1484
F0.90836399999999995
tp1247
sI362521
(F0.066000000000000003
F0.14999999999999999
F0.92053200000000002
tp1248
sI362522
(F0.059520000000000003
F0.15809999999999999
F0.95162599999999997
tp1249
sI362523
(F0.06225
F0.14960000000000001
F0.88654299999999997
tp1250
sI362524
(F0.06966
F0.16089999999999999
F0.89189799999999997
tp1251
sI362525
(F0.052060000000000002
F0.14430000000000001
F0.93180799999999997
tp1252
sI362526
(F0.063799999999999996
F0.14729999999999999
F0.88932100000000003
tp1253
sI362527
(F0.06012
F0.15210000000000001
F0.92484500000000003
tp1254
sI362528
(F0.0076220000000000003
F0.61209999999999998
F0.90836399999999995
tp1255
sI362529
(F0.0087049999999999992
F0.6048
F0.92053200000000002
tp1256
sI362530
(F0.0077060000000000002
F0.62390000000000001
F0.95162599999999997
tp1257
sI362531
(F0.0082509999999999997
F0.60640000000000005
F0.88654299999999997
tp1258
sI362532
(F0.0097610000000000006
F0.60470000000000002
F0.89189799999999997
tp1259
sI362533
(F0.0067600000000000004
F0.63190000000000002
F0.93180799999999997
tp1260
sI362534
(F0.0082120000000000005
F0.6149
F0.88932100000000003
tp1261
sI362535
(F0.0079629999999999996
F0.61029999999999995
F0.92484500000000003
tp1262
sI362536
(F0.0076220000000000003
F0.2369
F0.90836399999999995
tp1263
sI362537
(F0.0087049999999999992
F0.2155
F0.92053200000000002
tp1264
sI362538
(F0.0077060000000000002
F0.23200000000000001
F0.95162599999999997
tp1265
sI362539
(F0.0082509999999999997
F0.22939999999999999
F0.88654299999999997
tp1266
sI362540
(F0.0097610000000000006
F0.245
F0.89189799999999997
tp1267
sI362541
(F0.0067600000000000004
F0.2253
F0.93180799999999997
tp1268
sI362542
(F0.0082120000000000005
F0.22650000000000001
F0.88932100000000003
tp1269
sI362543
(F0.0079629999999999996
F0.22409999999999999
F0.92484500000000003
tp1270
sI362544
(F0.0076220000000000003
F0.1774
F0.90836399999999995
tp1271
sI362545
(F0.0087049999999999992
F0.1797
F0.92053200000000002
tp1272
sI362546
(F0.0077060000000000002
F0.1772
F0.95162599999999997
tp1273
sI362547
(F0.0082509999999999997
F0.157
F0.88654299999999997
tp1274
sI362548
(F0.0097610000000000006
F0.1769
F0.89189799999999997
tp1275
sI362549
(F0.0067600000000000004
F0.1507
F0.93180799999999997
tp1276
sI362550
(F0.0082120000000000005
F0.17530000000000001
F0.88932100000000003
tp1277
sI362551
(F0.0079629999999999996
F0.16550000000000001
F0.92484500000000003
tp1278
sI362552
(F3.1970000000000001e-05
F0.61309999999999998
F0.90836399999999995
tp1279
sI362553
(F3.5590000000000003e-05
F0.61309999999999998
F0.92053200000000002
tp1280
sI362554
(F2.9479999999999999e-05
F0.61109999999999998
F0.95162599999999997
tp1281
sI362555
(F3.3160000000000001e-05
F0.62549999999999994
F0.88654299999999997
tp1282
sI362556
(F3.8980000000000003e-05
F0.60350000000000004
F0.89189799999999997
tp1283
sI362557
(F2.6829999999999999e-05
F0.63480000000000003
F0.93180799999999997
tp1284
sI362558
(F3.163e-05
F0.60729999999999995
F0.88932100000000003
tp1285
sI362559
(F3.3099999999999998e-05
F0.60160000000000002
F0.92484500000000003
tp1286
sI362560
(F3.1970000000000001e-05
F0.2389
F0.90836399999999995
tp1287
sI362561
(F3.5590000000000003e-05
F0.20130000000000001
F0.92053200000000002
tp1288
sI362562
(F2.9479999999999999e-05
F0.24729999999999999
F0.95162599999999997
tp1289
sI362563
(F3.3160000000000001e-05
F0.23619999999999999
F0.88654299999999997
tp1290
sI362564
(F3.8980000000000003e-05
F0.24729999999999999
F0.89189799999999997
tp1291
sI362565
(F2.6829999999999999e-05
F0.18729999999999999
F0.93180799999999997
tp1292
sI362566
(F3.163e-05
F0.24129999999999999
F0.88932100000000003
tp1293
sI362567
(F3.3099999999999998e-05
F0.2233
F0.92484500000000003
tp1294
sI362568
(F3.1970000000000001e-05
F0.18429999999999999
F0.90836399999999995
tp1295
sI362569
(F3.5590000000000003e-05
F0.18559999999999999
F0.92053200000000002
tp1296
sI362570
(F2.9479999999999999e-05
F0.18010000000000001
F0.95162599999999997
tp1297
sI362571
(F3.3160000000000001e-05
F0.1615
F0.88654299999999997
tp1298
sI362572
(F3.8980000000000003e-05
F0.17780000000000001
F0.89189799999999997
tp1299
sI362573
(F2.6829999999999999e-05
F0.17780000000000001
F0.93180799999999997
tp1300
sI362574
(F3.163e-05
F0.15140000000000001
F0.88932100000000003
tp1301
sI362575
(F3.3099999999999998e-05
F0.17380000000000001
F0.92484500000000003
tp1302
sI345784
(F0.21707000000000001
F1
F1
tp1303
sI362169
(F2.9201999999999999e-05
F0.61727183393999996
F1.01882044433
tp1304
sI346238
(F1
F1
F0.094799999999999995
tp1305
sI346239
(F1
F1
F0.043900000000000002
tp1306
sI346240
(F1
F1
F0.098699999999999996
tp1307
sI346241
(F1
F1
F0.0465
tp1308
sI346242
(F1
F1
F0.1013
tp1309
sI346243
(F1
F1
F0.050000000000000003
tp1310
sI346244
(F1
F1
F0.1036
tp1311
sI346245
(F1
F1
F0.054399999999999997
tp1312
sI346246
(F1
F1
F0.1061
tp1313
sI346247
(F1
F1
F0.061199999999999997
tp1314
sI346248
(F1
F1
F0.10730000000000001
tp1315
sI346249
(F1
F1
F0.069099999999999995
tp1316
sI346250
(F1
F1
F0.1077
tp1317
sI346251
(F1
F1
F0.076700000000000004
tp1318
sI346252
(F1
F1
F0.1071
tp1319
sI346253
(F1
F1
F0.087099999999999997
tp1320
sI346254
(F1
F1
F0.1071
tp1321
sI346255
(F1
F1
F0.097199999999999995
tp1322
sI346256
(F1
F1
F0.1207
tp1323
sI346257
(F1
F1
F0.12239999999999999
tp1324
sI346258
(F1
F1
F0.12239999999999999
tp1325
sI346259
(F1
F1
F0.1331
tp1326
sI346260
(F1
F1
F0.12330000000000001
tp1327
sI346261
(F1
F1
F0.14360000000000001
tp1328
sI346262
(F1
F1
F0.111
tp1329
sI346263
(F1
F1
F0.1328
tp1330
sI346264
(F1
F1
F0.11650000000000001
tp1331
sI346265
(F1
F1
F0.15790000000000001
tp1332
sI346266
(F1
F1
F0.1208
tp1333
sI346267
(F1
F1
F0.183
tp1334
sI346268
(F1
F1
F0.1211
tp1335
sI346269
(F1
F1
F0.20419999999999999
tp1336
sI346270
(F1
F1
F0.1245
tp1337
sI346271
(F1
F1
F0.2273
tp1338
sI346272
(F1
F1
F0.1278
tp1339
sI346273
(F1
F1
F0.27039999999999997
tp1340
sI346274
(F1
F1
F0.13439999999999999
tp1341
sI346275
(F1
F1
F0.30170000000000002
tp1342
sI346276
(F1
F1
F0.1348
tp1343
sI346277
(F1
F1
F0.35110000000000002
tp1344
sI346278
(F1
F1
F0.14230000000000001
tp1345
sI346279
(F1
F1
F0.3831
tp1346
sI346280
(F1
F1
F0.14319999999999999
tp1347
sI346281
(F1
F1
F0.39960000000000001
tp1348
sI346282
(F1
F1
F0.1487
tp1349
sI346283
(F1
F1
F0.4375
tp1350
sI346284
(F1
F1
F0.15540000000000001
tp1351
sI346285
(F1
F1
F0.44069999999999998
tp1352
sI346286
(F1
F1
F0.15740000000000001
tp1353
sI346287
(F1
F1
F0.46160000000000001
tp1354
sI346288
(F1
F1
F0.161
tp1355
sI346289
(F1
F1
F0.48209999999999997
tp1356
sI346290
(F1
F1
F0.16800000000000001
tp1357
sI346291
(F1
F1
F0.49719999999999998
tp1358
sI346292
(F1
F1
F0.16550000000000001
tp1359
sI346293
(F1
F1
F0.50739999999999996
tp1360
sI346294
(F1
F1
F0.17330000000000001
tp1361
sI346295
(F1
F1
F0.51070000000000004
tp1362
sI346296
(F1
F1
F0.1799
tp1363
sI346297
(F1
F1
F0.51990000000000003
tp1364
sI346298
(F1
F1
F0.18060000000000001
tp1365
sI346299
(F1
F1
F0.52390000000000003
tp1366
sI346300
(F1
F1
F0.1893
tp1367
sI346301
(F1
F1
F0.54010000000000002
tp1368
sI362187
(F2.4499999999999999e-05
F0.185984186573
F0.99459386403600003
tp1369
sI362203
(F2258
F0.1416
F0.88133799999999995
tp1370
sI362223
(F65.930000000000007
F0.64910000000000001
F0.91651499999999997
tp1371
sI362227
(F75.109999999999999
F0.21940000000000001
F0.88133799999999995
tp1372
sI362067
(F62.280999999999999
F0.14567322527900001
F0.90417623999999996
tp1373
sI362247
(F9.8320000000000007
F0.61799999999999999
F0.91651499999999997
tp1374
sI362052
(F69.805999999999997
F0.60996482545200004
F0.89624574454999995
tp1375
sI363102
(F71.686999999999998
F0.66956000000000004
F0.97509999999999997
tp1376
sI363103
(F71.691999999999993
F0.20258999999999999
F0.97509999999999997
tp1377
sI363104
(F71.718999999999994
F0.12909999999999999
F0.97509999999999997
tp1378
sI363105
(F11.031000000000001
F0.62717000000000001
F0.97509999999999997
tp1379
sI363106
(F11.069000000000001
F0.22456000000000001
F0.97509999999999997
tp1380
sI363107
(F11.066000000000001
F0.14602999999999999
F0.97509999999999997
tp1381
sI363108
(F0.83028000000000002
F0.60243999999999998
F0.97509999999999997
tp1382
sI363109
(F0.82737000000000005
F0.24514
F0.97509999999999997
tp1383
sI363110
(F0.83275999999999994
F0.13522999999999999
F0.97509999999999997
tp1384
sI363111
(F0.052669000000000001
F0.58935000000000004
F0.97509999999999997
tp1385
sI363112
(F0.052847999999999999
F0.26449
F0.97509999999999997
tp1386
sI363113
(F0.052939
F0.15926999999999999
F0.97509999999999997
tp1387
sI363114
(F0.0096267999999999996
F0.57945000000000002
F0.97509999999999997
tp1388
sI363115
(F0.0095498000000000006
F0.26211000000000001
F0.97509999999999997
tp1389
sI363116
(F0.0095038999999999992
F0.16072
F0.97509999999999997
tp1390
sI363117
(F0.0012574000000000001
F0.56657000000000002
F0.97509999999999997
tp1391
sI363118
(F0.0012388
F0.27263999999999999
F0.97509999999999997
tp1392
sI363119
(F0.0012661
F0.16131000000000001
F0.97509999999999997
tp1393
sI363120
(F4.7999999999999998e-06
F0.56637999999999999
F0.97509999999999997
tp1394
sI363121
(F4.5000000000000001e-06
F0.30586999999999998
F0.97509999999999997
tp1395
sI363122
(F4.6862000000000001e-06
F0.188
F0.97509999999999997
tp1396
sI363123
(F1714.9000000000001
F0.83160999999999996
F1.141
tp1397
sI363124
(F1715.2
F0.10879
F1.141
tp1398
sI363125
(F1715.5999999999999
F0.059371
F1.141
tp1399
sI363126
(F84.575999999999993
F0.71882000000000001
F1.141
tp1400
sI363127
(F84.578999999999994
F0.17413000000000001
F1.141
tp1401
sI363128
(F84.748000000000005
F0.10841000000000001
F1.141
tp1402
sI305785
(F1427
F1
F1
tp1403
sI363130
(F35.890999999999998
F0.20043
F1.141
tp1404
sI363131
(F35.880000000000003
F0.12631000000000001
F1.141
tp1405
sI363132
(F8.1928000000000001
F0.62868999999999997
F1.141
tp1406
sI363133
(F8.1824999999999992
F0.22864000000000001
F1.141
tp1407
sI363134
(F8.1746999999999996
F0.14307
F1.141
tp1408
sI363135
(F1.2710999999999999
F0.59670999999999996
F1.141
tp1409
sI363136
(F1.2674000000000001
F0.24962000000000001
F1.141
tp1410
sI363137
(F1.2689999999999999
F0.15384999999999999
F1.141
tp1411
sI363138
(F0.44242999999999999
F0.57282999999999995
F1.141
tp1412
sI363139
(F0.44356000000000001
F0.26195000000000002
F1.141
tp1413
sI363140
(F0.44394
F0.16209000000000001
F1.141
tp1414
sI363141
(F0.14715
F0.55345
F1.141
tp1415
sI363142
(F0.14727999999999999
F0.27710000000000001
F1.141
tp1416
sI363143
(F0.14752999999999999
F0.17030999999999999
F1.141
tp1417
sI363144
(F0.0054964000000000002
F0.53627999999999998
F1.141
tp1418
sI363145
(F0.0055322000000000001
F0.29170000000000001
F1.141
tp1419
sI363146
(F0.0055490000000000001
F0.17460000000000001
F1.141
tp1420
sI363147
(F1719.7
F0.83308000000000004
F1.141
tp1421
sI363148
(F1718.9000000000001
F0.10864
F1.141
tp1422
sI363149
(F1719.4000000000001
F0.060314
F1.141
tp1423
sI363150
(F85.078999999999994
F0.71889999999999998
F1.141
tp1424
sI363151
(F85.055999999999997
F0.17682999999999999
F1.141
tp1425
sI363152
(F85.164000000000001
F0.1132
F1.141
tp1426
sI363153
(F36.002000000000002
F0.67412000000000005
F1.141
tp1427
sI363154
(F36.012
F0.20365
F1.141
tp1428
sI363155
(F36.051000000000002
F0.13181999999999999
F1.141
tp1429
sI363156
(F8.2022999999999993
F0.62997999999999998
F1.141
tp1430
sI363157
(F8.2164999999999999
F0.23172999999999999
F1.141
tp1431
sI363158
(F8.2422000000000004
F0.15007000000000001
F1.141
tp1432
sI363159
(F1.2756000000000001
F0.59918000000000005
F1.141
tp1433
sI363160
(F1.2754000000000001
F0.25301000000000001
F1.141
tp1434
sI363161
(F1.2743
F0.16139999999999999
F1.141
tp1435
sI363162
(F0.44557000000000002
F0.57769000000000004
F1.141
tp1436
sI363163
(F0.44591999999999998
F0.26649
F1.141
tp1437
sI363164
(F0.44636999999999999
F0.16930999999999999
F1.141
tp1438
sI363165
(F0.15223999999999999
F0.56096000000000001
F1.141
tp1439
sI363166
(F0.15287000000000001
F0.28673999999999999
F1.141
tp1440
sI363167
(F0.15379000000000001
F0.18318000000000001
F1.141
tp1441
sI363168
(F0.0056842000000000004
F0.53649999999999998
F1.141
tp1442
sI363169
(F0.0057314999999999996
F0.30299999999999999
F1.141
tp1443
sI363170
(F0.0057603999999999997
F0.19217000000000001
F1.141
tp1444
sI303561
(F67901
F0.13197999999999999
F1
tp1445
sI303562
(F88528
F0.073573
F1
tp1446
sI362053
(F55.081000000000003
F0.62442471691400003
F0.93934288119999998
tp1447
sI362349
(F0.00088520000000000005
F0.28760000000000002
F0.92640599999999995
tp1448
sI363331
(F20026
F0.81452999999999998
F0.97019999999999995
tp1449
sI363332
(F20024
F0.13847000000000001
F0.97019999999999995
tp1450
sI363333
(F20021
F0.047014
F0.97019999999999995
tp1451
sI363334
(F589.71000000000004
F0.65873999999999999
F0.97019999999999995
tp1452
sI363335
(F589.95000000000005
F0.25391000000000002
F0.97019999999999995
tp1453
sI363336
(F590.25
F0.087748000000000007
F0.97019999999999995
tp1454
sI363337
(F84.259
F0.61609999999999998
F0.97019999999999995
tp1455
sI363338
(F84.224000000000004
F0.27942
F0.97019999999999995
tp1456
sI363339
(F84.177000000000007
F0.10697
F0.97019999999999995
tp1457
sI363340
(F6.0976999999999997
F0.58596999999999999
F0.97019999999999995
tp1458
sI363341
(F6.0736999999999997
F0.28996
F0.97019999999999995
tp1459
sI363342
(F6.0824999999999996
F0.127
F0.97019999999999995
tp1460
sI363343
(F0.38153999999999999
F0.57291000000000003
F0.97019999999999995
tp1461
sI363344
(F0.38124000000000002
F0.29171000000000002
F0.97019999999999995
tp1462
sI363345
(F0.38218000000000002
F0.14174
F0.97019999999999995
tp1463
sI363346
(F0.068722000000000005
F0.56620999999999999
F0.97019999999999995
tp1464
sI363347
(F0.068769999999999998
F0.29208000000000001
F0.97019999999999995
tp1465
sI363348
(F0.068484000000000003
F0.14523
F0.97019999999999995
tp1466
sI363349
(F0.0090285000000000001
F0.57847999999999999
F0.97019999999999995
tp1467
sI363350
(F0.0089116000000000004
F0.28887000000000002
F0.97019999999999995
tp1468
sI363351
(F0.0089733
F0.15961
F0.97019999999999995
tp1469
sI363352
(F2.6193000000000001e-05
F0.56186000000000003
F0.97019999999999995
tp1470
sI363353
(F2.8075000000000001e-05
F0.26971000000000001
F0.97019999999999995
tp1471
sI363354
(F2.94e-05
F0.1661
F0.97019999999999995
tp1472
sI363361
(F2076.5
F0.81194999999999995
F0.97509999999999997
tp1473
sI363362
(F2078.4000000000001
F0.11881
F0.97509999999999997
tp1474
sI363363
(F2079
F0.070365999999999998
F0.97509999999999997
tp1475
sI363364
(F2077.9000000000001
F0.81127000000000005
F0.97509999999999997
tp1476
sI363365
(F2077.3000000000002
F0.11931
F0.97509999999999997
tp1477
sI363366
(F2077.8000000000002
F0.069785
F0.97509999999999997
tp1478
sI363367
(F71.960999999999999
F0.66834000000000005
F0.97509999999999997
tp1479
sI363368
(F71.578999999999994
F0.20252999999999999
F0.97509999999999997
tp1480
sI363369
(F71.628
F0.12873000000000001
F0.97509999999999997
tp1481
sI363370
(F11.098000000000001
F0.62783
F0.97509999999999997
tp1482
sI363371
(F11.071999999999999
F0.22588
F0.97509999999999997
tp1483
sI363372
(F11.06
F0.14666000000000001
F0.97509999999999997
tp1484
sI363373
(F0.83360000000000001
F0.60006999999999999
F0.97509999999999997
tp1485
sI363374
(F0.83060999999999996
F0.24468000000000001
F0.97509999999999997
tp1486
sI363375
(F0.83181000000000005
F0.15792
F0.97509999999999997
tp1487
sI363376
(F0.052950999999999998
F0.58811000000000002
F0.97509999999999997
tp1488
sI363377
(F0.052927000000000002
F0.25744
F0.97509999999999997
tp1489
sI363378
(F0.053252000000000001
F0.17057
F0.97509999999999997
tp1490
sI363379
(F0.0095434999999999999
F0.58042000000000005
F0.97509999999999997
tp1491
sI363380
(F0.0095438999999999993
F0.26373000000000002
F0.97509999999999997
tp1492
sI363381
(F0.0095914999999999993
F0.16148999999999999
F0.97509999999999997
tp1493
sI363382
(F0.0012698
F0.56703000000000003
F0.97509999999999997
tp1494
sI363383
(F0.0012643000000000001
F0.28181
F0.97509999999999997
tp1495
sI363384
(F0.0012306000000000001
F0.15611
F0.97509999999999997
tp1496
sI363385
(F4.7999999999999998e-06
F0.60419
F0.97509999999999997
tp1497
sI363386
(F5.0000000000000004e-06
F0.28081
F0.97509999999999997
tp1498
sI363387
(F4.6999999999999999e-06
F0.17388000000000001
F0.97509999999999997
tp1499
sI363388
(F2076.4000000000001
F0.81081000000000003
F0.97509999999999997
tp1500
sI363389
(F2079.0999999999999
F0.1193
F0.97509999999999997
tp1501
sI363390
(F2075.8000000000002
F0.069999000000000006
F0.97509999999999997
tp1502
sI363391
(F71.680999999999997
F0.67022999999999999
F0.97509999999999997
tp1503
sI363392
(F71.655000000000001
F0.20252999999999999
F0.97509999999999997
tp1504
sI363393
(F71.741
F0.12941
F0.97509999999999997
tp1505
sI363394
(F11.036
F0.62887000000000004
F0.97509999999999997
tp1506
sI363395
(F11.051
F0.22608
F0.97509999999999997
tp1507
sI363396
(F11.08
F0.14779
F0.97509999999999997
tp1508
sI363397
(F0.83477000000000001
F0.60091000000000006
F0.97509999999999997
tp1509
sI363398
(F0.83140000000000003
F0.24759
F0.97509999999999997
tp1510
sI363399
(F0.83279999999999998
F0.15715000000000001
F0.97509999999999997
tp1511
sI363400
(F0.053189
F0.58819999999999995
F0.97509999999999997
tp1512
sI363401
(F0.053193999999999998
F0.24890000000000001
F0.97509999999999997
tp1513
sI363402
(F0.053024000000000002
F0.16109000000000001
F0.97509999999999997
tp1514
sI363403
(F0.0096374000000000008
F0.58038999999999996
F0.97509999999999997
tp1515
sI363404
(F0.0094310000000000001
F0.26378000000000001
F0.97509999999999997
tp1516
sI363405
(F0.0096256999999999992
F0.16166
F0.97509999999999997
tp1517
sI363406
(F0.0012528999999999999
F0.58618999999999999
F0.97509999999999997
tp1518
sI363407
(F0.0012711000000000001
F0.26848
F0.97509999999999997
tp1519
sI363408
(F0.0012501999999999999
F0.16153999999999999
F0.97509999999999997
tp1520
sI363409
(F4.8999999999999997e-06
F0.57884000000000002
F0.97509999999999997
tp1521
sI363410
(F4.6999999999999999e-06
F0.53147
F0.97509999999999997
tp1522
sI363411
(F4.7999999999999998e-06
F0.17446
F0.97509999999999997
tp1523
sI363412
(F11224
F0.81089
F0.9728
tp1524
sI363413
(F11229
F0.1174
F0.9728
tp1525
sI363414
(F11228
F0.071818999999999994
F0.9728
tp1526
sI363415
(F403.31
F0.66942999999999997
F0.9728
tp1527
sI363416
(F403.62
F0.20054
F0.9728
tp1528
sI363417
(F403.74000000000001
F0.13133
F0.9728
tp1529
sI363418
(F62.127000000000002
F0.62785000000000002
F0.9728
tp1530
sI363419
(F62.131
F0.22397
F0.9728
tp1531
sI363420
(F62.241
F0.14893000000000001
F0.9728
tp1532
sI363421
(F4.6322000000000001
F0.60019
F0.9728
tp1533
sI363422
(F4.6151
F0.24388000000000001
F0.9728
tp1534
sI363423
(F4.6219999999999999
F0.15748999999999999
F0.9728
tp1535
sI363424
(F0.28825000000000001
F0.58450999999999997
F0.9728
tp1536
sI363425
(F0.28848000000000001
F0.25686999999999999
F0.9728
tp1537
sI363426
(F0.28843999999999997
F0.16036
F0.9728
tp1538
sI363427
(F0.051020000000000003
F0.58752000000000004
F0.9728
tp1539
sI363428
(F0.051360999999999997
F0.27105000000000001
F0.9728
tp1540
sI363429
(F0.051548999999999998
F0.16048000000000001
F0.9728
tp1541
sI363430
(F0.0066978000000000003
F0.58199999999999996
F0.9728
tp1542
sI363431
(F0.0066711000000000001
F0.27083000000000002
F0.9728
tp1543
sI363432
(F0.0066449999999999999
F0.17832999999999999
F0.9728
tp1544
sI363433
(F2.4499999999999999e-05
F0.57360999999999995
F0.9728
tp1545
sI363434
(F2.4499999999999999e-05
F0.26571
F0.9728
tp1546
sI363435
(F2.4430000000000002e-05
F0.53827000000000003
F0.9728
tp1547
sI363436
(F20013
F0.81483000000000005
F0.97019999999999995
tp1548
sI363437
(F20028
F0.13863
F0.97019999999999995
tp1549
sI363438
(F20022
F0.047005999999999999
F0.97019999999999995
tp1550
sI363439
(F590.63999999999999
F0.65871000000000002
F0.97019999999999995
tp1551
sI363440
(F590.50999999999999
F0.25417000000000001
F0.97019999999999995
tp1552
sI363441
(F589.89999999999998
F0.087597999999999995
F0.97019999999999995
tp1553
sI363442
(F84.161000000000001
F0.61589000000000005
F0.97019999999999995
tp1554
sI363443
(F84.188000000000002
F0.27825
F0.97019999999999995
tp1555
sI363444
(F84.103999999999999
F0.10478
F0.97019999999999995
tp1556
sI363445
(F6.0808999999999997
F0.58667999999999998
F0.97019999999999995
tp1557
sI363446
(F6.0765000000000002
F0.28519
F0.97019999999999995
tp1558
sI363447
(F6.0731000000000002
F0.13644000000000001
F0.97019999999999995
tp1559
sI363448
(F0.38149
F0.57371000000000005
F0.97019999999999995
tp1560
sI363449
(F0.38218999999999997
F0.29109000000000002
F0.97019999999999995
tp1561
sI363450
(F0.38097999999999999
F0.1391
F0.97019999999999995
tp1562
sI363451
(F0.068235000000000004
F0.56559000000000004
F0.97019999999999995
tp1563
sI363452
(F0.068485000000000004
F0.29413
F0.97019999999999995
tp1564
sI363453
(F0.068219000000000002
F0.14681
F0.97019999999999995
tp1565
sI363454
(F0.0089461000000000002
F0.58431
F0.97019999999999995
tp1566
sI363455
(F0.0088991000000000001
F0.30889
F0.97019999999999995
tp1567
sI363456
(F0.0088974999999999992
F0.15298999999999999
F0.97019999999999995
tp1568
sI363457
(F2.7699999999999999e-05
F0.59550999999999998
F0.97019999999999995
tp1569
sI363458
(F2.8500000000000002e-05
F0.31591000000000002
F0.97019999999999995
tp1570
sI363459
(F2.6999999999999999e-05
F0.20710000000000001
F0.97019999999999995
tp1571
sI363460
(F20038
F0.81432000000000004
F0.97019999999999995
tp1572
sI363461
(F20023
F0.13894000000000001
F0.97019999999999995
tp1573
sI363462
(F20022
F0.047011999999999998
F0.97019999999999995
tp1574
sI363463
(F590.25
F0.66037000000000001
F0.97019999999999995
tp1575
sI363464
(F590.09000000000003
F0.25389
F0.97019999999999995
tp1576
sI363465
(F589.58000000000004
F0.087077000000000002
F0.97019999999999995
tp1577
sI363466
(F84.185000000000002
F0.61614000000000002
F0.97019999999999995
tp1578
sI363467
(F84.159000000000006
F0.27777000000000002
F0.97019999999999995
tp1579
sI363468
(F84.143000000000001
F0.10668
F0.97019999999999995
tp1580
sI363469
(F6.0894000000000004
F0.59240999999999999
F0.97019999999999995
tp1581
sI363470
(F6.0877999999999997
F0.28975000000000001
F0.97019999999999995
tp1582
sI429007
(F696.27999999999997
F0.54347999999999996
F0.64865525363400001
tp1583
sI363472
(F0.38166
F0.57472000000000001
F0.97019999999999995
tp1584
sI363473
(F0.38185999999999998
F0.29285
F0.97019999999999995
tp1585
sI363474
(F0.38194
F0.13986000000000001
F0.97019999999999995
tp1586
sI363475
(F0.068210999999999994
F0.56479000000000001
F0.97019999999999995
tp1587
sI363476
(F0.068325999999999998
F0.29288999999999998
F0.97019999999999995
tp1588
sI363477
(F0.068293999999999994
F0.14715
F0.97019999999999995
tp1589
sI363478
(F0.0087439000000000006
F0.55373000000000006
F0.97019999999999995
tp1590
sI363479
(F0.0088696999999999995
F0.28877999999999998
F0.97019999999999995
tp1591
sI363480
(F0.0088868999999999997
F0.15644
F0.97019999999999995
tp1592
sI363481
(F2.8839e-05
F0.49242999999999998
F0.97019999999999995
tp1593
sI363482
(F2.7237e-05
F0.32201999999999997
F0.97019999999999995
tp1594
sI363483
(F2.83e-05
F0.18035999999999999
F0.97019999999999995
tp1595
sI363486
(F9065.6000000000004
F0.021330999999999999
F1
tp1596
sI429056
(F1978.9000000000001
F0.81906999999999996
F1
tp1597
sI429057
(F1982.5999999999999
F0.11346000000000001
F1
tp1598
sI429058
(F1983.0999999999999
F0.066059999999999994
F1
tp1599
sI429059
(F109.75
F0.69403000000000004
F1
tp1600
sI429060
(F109.06999999999999
F0.19237000000000001
F1
tp1601
sI429061
(F109.45
F0.11888
F1
tp1602
sI429062
(F39.923999999999999
F0.60694000000000004
F1
tp1603
sI344577
(F1901.3
F1
F1
tp1604
sI429064
(F40.033000000000001
F0.15493000000000001
F1
tp1605
sI429065
(F8.5383999999999993
F0.55832999999999999
F1
tp1606
sI429066
(F8.5338999999999992
F0.26618000000000003
F1
tp1607
sI429067
(F8.5512999999999995
F0.17688000000000001
F1
tp1608
sI429068
(F1.7931999999999999
F1
F1
tp1609
sI429069
(F0.14776
F1
F1
tp1610
sI362331
(F0.0083840000000000008
F0.16059999999999999
F0.88133799999999995
tp1611
sI363600
(F16719
F0.83755000000000002
F1.1200000000000001
tp1612
sI363601
(F16720
F0.13888
F1.1200000000000001
tp1613
sI363602
(F16718
F0.024680000000000001
F1.1200000000000001
tp1614
sI363603
(F755.46000000000004
F0.71214
F1.1200000000000001
tp1615
sI363604
(F755.76999999999998
F0.24179
F1.1200000000000001
tp1616
sI363605
(F755.64999999999998
F0.050389999999999997
F1.1200000000000001
tp1617
sI363606
(F318.93000000000001
F0.66586000000000001
F1.1200000000000001
tp1618
sI363607
(F319.91000000000003
F0.26802999999999999
F1.1200000000000001
tp1619
sI363608
(F319.44999999999999
F0.073317999999999994
F1.1200000000000001
tp1620
sI363609
(F73.537999999999997
F0.61953999999999998
F1.1200000000000001
tp1621
sI363610
(F73.512
F0.28656999999999999
F1.1200000000000001
tp1622
sI363611
(F73.564999999999998
F0.097286999999999998
F1.1200000000000001
tp1623
sI363612
(F11.519
F0.58697999999999995
F1.1200000000000001
tp1624
sI363613
(F11.516999999999999
F0.29904999999999998
F1.1200000000000001
tp1625
sI363614
(F11.513
F0.11652
F1.1200000000000001
tp1626
sI363615
(F4.0147000000000004
F0.56667999999999996
F1.1200000000000001
tp1627
sI363616
(F4.0178000000000003
F0.30525999999999998
F1.1200000000000001
tp1628
sI363617
(F4.0179
F0.12998000000000001
F1.1200000000000001
tp1629
sI363618
(F1.3243
F0.54857
F1.1200000000000001
tp1630
sI363619
(F1.3286
F0.30889
F1.1200000000000001
tp1631
sI363620
(F1.3260000000000001
F0.14410000000000001
F1.1200000000000001
tp1632
sI363621
(F0.042293999999999998
F0.52546000000000004
F1.1200000000000001
tp1633
sI363622
(F0.041883999999999998
F0.31972
F1.1200000000000001
tp1634
sI363623
(F0.047382000000000001
F0.25011
F1.1200000000000001
tp1635
sI363624
(F16720
F0.83760000000000001
F1.1200000000000001
tp1636
sI363625
(F16719
F0.13896
F1.1200000000000001
tp1637
sI363626
(F16715
F0.024679
F1.1200000000000001
tp1638
sI363627
(F755.22000000000003
F0.71225000000000005
F1.1200000000000001
tp1639
sI363628
(F755.62
F0.24181
F1.1200000000000001
tp1640
sI363629
(F755.78999999999996
F0.050402000000000002
F1.1200000000000001
tp1641
sI363630
(F318.81
F0.66593999999999998
F1.1200000000000001
tp1642
sI363631
(F320.01999999999998
F0.26828000000000002
F1.1200000000000001
tp1643
sI363632
(F319.45999999999998
F0.073335999999999998
F1.1200000000000001
tp1644
sI363633
(F73.575999999999993
F0.61926999999999999
F1.1200000000000001
tp1645
sI363634
(F73.557000000000002
F0.28649000000000002
F1.1200000000000001
tp1646
sI363635
(F73.602999999999994
F0.097336000000000006
F1.1200000000000001
tp1647
sI363636
(F11.52
F0.58696000000000004
F1.1200000000000001
tp1648
sI363637
(F11.523999999999999
F0.29875000000000002
F1.1200000000000001
tp1649
sI363638
(F11.515000000000001
F0.11658
F1.1200000000000001
tp1650
sI363639
(F4.0202
F0.56679999999999997
F1.1200000000000001
tp1651
sI363640
(F4.0229999999999997
F0.30591000000000002
F1.1200000000000001
tp1652
sI363641
(F4.016
F0.13003000000000001
F1.1200000000000001
tp1653
sI363642
(F1.3262
F0.54584999999999995
F1.1200000000000001
tp1654
sI363643
(F1.3239000000000001
F0.31089
F1.1200000000000001
tp1655
sI363644
(F1.3287
F0.14496000000000001
F1.1200000000000001
tp1656
sI363645
(F0.042047000000000001
F0.52270000000000005
F1.1200000000000001
tp1657
sI363646
(F0.042049000000000003
F0.31748999999999999
F1.1200000000000001
tp1658
sI363647
(F0.042049000000000003
F0.16141
F1.1200000000000001
tp1659
sI363648
(F16702
F0.83753999999999995
F1.1200000000000001
tp1660
sI363649
(F16703
F0.13891999999999999
F1.1200000000000001
tp1661
sI363650
(F16689
F0.024650999999999999
F1.1200000000000001
tp1662
sI363651
(F755.03999999999996
F0.71286000000000005
F1.1200000000000001
tp1663
sI363652
(F755.19000000000005
F0.24121000000000001
F1.1200000000000001
tp1664
sI363653
(F755.13
F0.050525
F1.1200000000000001
tp1665
sI363654
(F315.31
F0.66769999999999996
F1.1200000000000001
tp1666
sI363655
(F315.95999999999998
F0.26832
F1.1200000000000001
tp1667
sI363656
(F315.63999999999999
F0.073154999999999998
F1.1200000000000001
tp1668
sI363657
(F72.275000000000006
F0.62265000000000004
F1.1200000000000001
tp1669
sI363658
(F72.257000000000005
F0.28588000000000002
F1.1200000000000001
tp1670
sI363659
(F72.225999999999999
F0.097291000000000002
F1.1200000000000001
tp1671
sI363660
(F11.44
F0.58886000000000005
F1.1200000000000001
tp1672
sI363661
(F11.462999999999999
F0.29836000000000001
F1.1200000000000001
tp1673
sI363662
(F11.459
F0.11745999999999999
F1.1200000000000001
tp1674
sI363663
(F4.0265000000000004
F0.56793000000000005
F1.1200000000000001
tp1675
sI363664
(F4.0270000000000001
F0.30434
F1.1200000000000001
tp1676
sI363665
(F4.0282999999999998
F0.13127
F1.1200000000000001
tp1677
sI363666
(F1.3264
F0.54630000000000001
F1.1200000000000001
tp1678
sI363667
(F1.3205
F0.31304999999999999
F1.1200000000000001
tp1679
sI363668
(F1.3222
F0.14405999999999999
F1.1200000000000001
tp1680
sI363669
(F0.043500999999999998
F0.52214000000000005
F1.1200000000000001
tp1681
sI363670
(F0.042721000000000002
F0.32002999999999998
F1.1200000000000001
tp1682
sI363671
(F0.042682999999999999
F0.16797000000000001
F1.1200000000000001
tp1683
sI362355
(F0.0010759999999999999
F0.16600000000000001
F0.88133799999999995
tp1684
sI363725
(F2813.3000000000002
F0.88819999999999999
F1.141
tp1685
sI363726
(F2816.3000000000002
F0.084772
F1.141
tp1686
sI363727
(F2816.3000000000002
F0.027822
F1.141
tp1687
sI363728
(F25.846
F0.66764999999999997
F1.141
tp1688
sI363729
(F25.920999999999999
F0.25403999999999999
F1.141
tp1689
sI363730
(F25.93
F0.082442000000000001
F1.141
tp1690
sI363731
(F9.2576000000000001
F0.63536999999999999
F1.141
tp1691
sI363732
(F9.2749000000000006
F0.26769999999999999
F1.141
tp1692
sI363733
(F9.3176000000000005
F0.10231
F1.141
tp1693
sI363734
(F1.8342000000000001
F0.59699999999999998
F1.141
tp1694
sI363735
(F1.8420000000000001
F0.28103
F1.141
tp1695
sI363736
(F1.8406
F0.12501000000000001
F1.141
tp1696
sI363737
(F0.24335999999999999
F0.57635999999999998
F1.141
tp1697
sI363738
(F0.24364
F0.29598999999999998
F1.141
tp1698
sI363739
(F0.24368999999999999
F0.14197000000000001
F1.141
tp1699
sI363740
(F0.075079000000000007
F0.55271000000000003
F1.141
tp1700
sI363741
(F0.074079999999999993
F0.29763000000000001
F1.141
tp1701
sI363742
(F0.074098999999999998
F0.15231
F1.141
tp1702
sI363743
(F0.020212999999999998
F0.54534000000000005
F1.141
tp1703
sI363744
(F0.019990999999999998
F0.30327999999999999
F1.141
tp1704
sI363745
(F0.020136000000000001
F0.16452
F1.141
tp1705
sI363746
(F0.00035609999999999998
F0.53656000000000004
F1.141
tp1706
sI363747
(F0.00036059999999999998
F0.35579
F1.141
tp1707
sI363748
(F0.00038109999999999999
F0.28212999999999999
F1.141
tp1708
sI363770
(F2152
F1
F1
tp1709
sI362367
(F4.3839999999999999e-06
F0.56569999999999998
F0.91651499999999997
tp1710
sI363772
(F2104.5999999999999
F1
F1
tp1711
sI363773
(F11124
F1
F1
tp1712
sI363774
(F11076
F1
F1
tp1713
sI363775
(F11124
F1
F1
tp1714
sI363776
(F11076
F1
F1
tp1715
sI363777
(F1580.7
F1
F1
tp1716
sI363778
(F1580.7
F1
F1
tp1717
sI363779
(F1580.7
F0.43110999999999999
F1
tp1718
sI429316
(F10571
F1
F1
tp1719
sI363781
(F8283.3999999999996
F1
F1
tp1720
sI363793
(F2077.3000000000002
F1
F1
tp1721
sI363794
(F71.644999999999996
F1
F1
tp1722
sI363795
(F11.073
F1
F1
tp1723
sI363796
(F0.83572000000000002
F1
F1
tp1724
sI363797
(F0.053400000000000003
F1
F1
tp1725
sI363798
(F0.0094719000000000001
F1
F1
tp1726
sI363799
(F0.0012673000000000001
F1
F1
tp1727
sI363800
(F4.6999999999999999e-06
F1
F1
tp1728
sI362373
(F3.6619999999999998e-06
F0.28649999999999998
F0.92640599999999995
tp1729
sI363838
(F11076
F0.72058999999999995
F1
tp1730
sI363845
(F2135.6999999999998
F1
F1
tp1731
sI363846
(F2136.4000000000001
F1
F1
tp1732
sI363847
(F44.182000000000002
F1
F1
tp1733
sI363848
(F3.2875999999999999
F1
F1
tp1734
sI363849
(F5.7744
F1
F1
tp1735
sI363850
(F10.095000000000001
F1
F1
tp1736
sI363851
(F2.2763
F1
F1
tp1737
sI363852
(F3.9441999999999999
F1
F1
tp1738
sI363853
(F44.182000000000002
F1
F1
tp1739
sI363854
(F3.2875999999999999
F1
F1
tp1740
sI363855
(F5.7744
F1
F1
tp1741
sI363856
(F10.095000000000001
F1
F1
tp1742
sI363857
(F2.2763
F1
F1
tp1743
sI363858
(F3.9441999999999999
F1
F1
tp1744
sI363859
(F44.182000000000002
F1
F1
tp1745
sI363860
(F3.2875999999999999
F1
F1
tp1746
sI363861
(F5.7744
F1
F1
tp1747
sI363862
(F10.095000000000001
F1
F1
tp1748
sI363863
(F2.2763
F1
F1
tp1749
sI363864
(F3.9441999999999999
F1
F1
tp1750
sI363865
(F44.182000000000002
F1
F1
tp1751
sI363866
(F3.2875999999999999
F1
F1
tp1752
sI363867
(F5.7744
F1
F1
tp1753
sI363868
(F10.095000000000001
F1
F1
tp1754
sI363869
(F2.2763
F1
F1
tp1755
sI363870
(F3.9441999999999999
F1
F1
tp1756
sI363871
(F44.182000000000002
F1
F1
tp1757
sI363872
(F3.2875999999999999
F1
F1
tp1758
sI363873
(F5.7744
F1
F1
tp1759
sI363874
(F10.095000000000001
F1
F1
tp1760
sI363875
(F2.2763
F1
F1
tp1761
sI363876
(F3.9441000000000002
F1
F1
tp1762
sI363877
(F44.182000000000002
F1
F1
tp1763
sI363878
(F3.2875999999999999
F1
F1
tp1764
sI363879
(F5.7744
F1
F1
tp1765
sI363880
(F10.095000000000001
F1
F1
tp1766
sI363881
(F2.2763
F1
F1
tp1767
sI363882
(F3.9441999999999999
F1
F1
tp1768
sI363883
(F44.182000000000002
F1
F1
tp1769
sI363884
(F3.2875999999999999
F1
F1
tp1770
sI363885
(F5.7744
F1
F1
tp1771
sI363886
(F10.095000000000001
F1
F1
tp1772
sI363887
(F2.2763
F1
F1
tp1773
sI363888
(F3.9441999999999999
F1
F1
tp1774
sI363889
(F44.182000000000002
F1
F1
tp1775
sI363890
(F3.2875999999999999
F1
F1
tp1776
sI363891
(F5.7744
F1
F1
tp1777
sI363892
(F10.095000000000001
F1
F1
tp1778
sI363893
(F2.2763
F1
F1
tp1779
sI363894
(F3.9441999999999999
F1
F1
tp1780
sI344712
(F1901.4000000000001
F1
F1
tp1781
sI306600
(F4.3270999999999997
F1
F1
tp1782
sI306601
(F0.85324999999999995
F1
F1
tp1783
sI306602
(F0.28510999999999997
F1
F1
tp1784
sI306603
(F0.021725000000000001
F1
F1
tp1785
sI306604
(F0.00060860000000000005
F1
F1
tp1786
sI306605
(F4.4000000000000002e-06
F1
F1
tp1787
sI306606
(F9.9999999999999995e-08
F1
F1
tp1788
sI306607
(F2.4758000000000001e-09
F1
F1
tp1789
sI306608
(F1.0689000000000001e-10
F1
F1
tp1790
sI306609
(F4.3281000000000001
F1
F1
tp1791
sI306610
(F0.84689000000000003
F1
F1
tp1792
sI306611
(F0.28603000000000001
F1
F1
tp1793
sI306612
(F0.021638000000000001
F1
F1
tp1794
sI306613
(F0.00060510000000000002
F1
F1
tp1795
sI306614
(F4.4000000000000002e-06
F1
F1
tp1796
sI306615
(F9.9999999999999995e-08
F1
F1
tp1797
sI306616
(F2.4398000000000002e-09
F1
F1
tp1798
sI306617
(F1.0238999999999999e-10
F1
F1
tp1799
sI429314
(F1107.8
F1
F1
tp1800
sI363780
(F11303
F1
F1
tp1801
sI364100
(F1982.3
F0.82179000000000002
F0.97509999999999997
tp1802
sI364101
(F1982.0999999999999
F0.11358
F0.97509999999999997
tp1803
sI364102
(F1981.5
F0.065796999999999994
F0.97509999999999997
tp1804
sI364103
(F109.13
F0.6895
F0.97509999999999997
tp1805
sI364104
(F108.94
F0.19588
F0.97509999999999997
tp1806
sI364105
(F108.98
F0.11768000000000001
F0.97509999999999997
tp1807
sI364106
(F39.872999999999998
F0.60280999999999996
F0.97509999999999997
tp1808
sI364107
(F39.859000000000002
F0.23529
F0.97509999999999997
tp1809
sI364108
(F39.890999999999998
F0.15623000000000001
F0.97509999999999997
tp1810
sI364109
(F8.5256000000000007
F0.56023000000000001
F0.97509999999999997
tp1811
sI364110
(F8.5259
F0.26640999999999998
F0.97509999999999997
tp1812
sI364111
(F8.5273000000000003
F0.17660000000000001
F0.97509999999999997
tp1813
sI364112
(F1.7870999999999999
F1
F0.97509999999999997
tp1814
sI364113
(F0.14760000000000001
F1
F0.97509999999999997
tp1815
sI364114
(F1981.5999999999999
F0.82133
F0.97509999999999997
tp1816
sI364115
(F1981.7
F0.11405
F0.97509999999999997
tp1817
sI364116
(F1982.2
F0.065766000000000005
F0.97509999999999997
tp1818
sI364117
(F110.62
F0.69411999999999996
F0.97509999999999997
tp1819
sI364118
(F110.43000000000001
F0.18734999999999999
F0.97509999999999997
tp1820
sI364119
(F110.5
F0.11942
F0.97509999999999997
tp1821
sI364120
(F40.686999999999998
F0.61636000000000002
F0.97509999999999997
tp1822
sI364121
(F40.670999999999999
F0.23293
F0.97509999999999997
tp1823
sI364122
(F40.673999999999999
F0.15332999999999999
F0.97509999999999997
tp1824
sI364123
(F8.6708999999999996
F0.56649000000000005
F0.97509999999999997
tp1825
sI364124
(F8.6670999999999996
F0.26623000000000002
F0.97509999999999997
tp1826
sI364125
(F8.6808999999999994
F0.17630999999999999
F0.97509999999999997
tp1827
sI364126
(F1.8091999999999999
F1
F0.97509999999999997
tp1828
sI364127
(F0.14874999999999999
F1
F0.97509999999999997
tp1829
sI364128
(F1981.8
F0.82145000000000001
F0.97509999999999997
tp1830
sI364129
(F1981.7
F0.10956
F0.97509999999999997
tp1831
sI364130
(F1982
F0.065758999999999998
F0.97509999999999997
tp1832
sI364131
(F110.61
F0.69266000000000005
F0.97509999999999997
tp1833
sI364132
(F110.55
F0.19020000000000001
F0.97509999999999997
tp1834
sI364133
(F110.63
F0.110886
F0.97509999999999997
tp1835
sI364134
(F40.789999999999999
F0.61790999999999996
F0.97509999999999997
tp1836
sI364135
(F40.716000000000001
F0.23429
F0.97509999999999997
tp1837
sI364136
(F40.744
F0.15648999999999999
F0.97509999999999997
tp1838
sI364137
(F8.6638999999999999
F0.56340000000000001
F0.97509999999999997
tp1839
sI364138
(F8.6755999999999993
F0.26523000000000002
F0.97509999999999997
tp1840
sI364139
(F8.6793999999999993
F0.17627000000000001
F0.97509999999999997
tp1841
sI364140
(F1.8082
F1
F0.97509999999999997
tp1842
sI364141
(F0.14826
F1
F0.97509999999999997
tp1843
sI364142
(F10706
F0.82110000000000005
F0.9728
tp1844
sI364143
(F10705
F0.11187999999999999
F0.9728
tp1845
sI364144
(F10705
F0.067424999999999999
F0.9728
tp1846
sI364145
(F607.64999999999998
F0.69028999999999996
F0.9728
tp1847
sI364146
(F607.59000000000003
F0.18959000000000001
F0.9728
tp1848
sI364147
(F607.97000000000003
F0.11955
F0.9728
tp1849
sI364148
(F222.33000000000001
F0.61702000000000001
F0.9728
tp1850
sI364149
(F222.31
F0.23371
F0.9728
tp1851
sI364150
(F222.38
F0.15812999999999999
F0.9728
tp1852
sI364151
(F47.423000000000002
F0.56127000000000005
F0.9728
tp1853
sI364152
(F47.401000000000003
F0.26495999999999997
F0.9728
tp1854
sI364153
(F47.420999999999999
F0.18046999999999999
F0.9728
tp1855
sI364154
(F9.9100999999999999
F1
F0.9728
tp1856
sI364155
(F0.81799999999999995
F1
F0.9728
tp1857
sI364156
(F19150
F0.82442000000000004
F0.97019999999999995
tp1858
sI410218
(F0.036865000000000002
F1
F1.1200000000000001
tp1859
sI364158
(F19140
F0.044614000000000001
F0.97019999999999995
tp1860
sI364159
(F945.82000000000005
F0.67286000000000001
F0.97019999999999995
tp1861
sI364160
(F945.60000000000002
F0.24526000000000001
F0.97019999999999995
tp1862
sI364161
(F944.32000000000005
F0.083187999999999998
F0.97019999999999995
tp1863
sI364162
(F339.75
F0.60260999999999998
F0.97019999999999995
tp1864
sI364163
(F339.76999999999998
F0.29193000000000002
F0.97019999999999995
tp1865
sI364164
(F339.66000000000003
F0.11029799999999999
F0.97019999999999995
tp1866
sI364165
(F72.078999999999994
F0.54767999999999994
F0.97019999999999995
tp1867
sI364166
(F72.099999999999994
F0.32016
F0.97019999999999995
tp1868
sI364167
(F72.058000000000007
F0.12542
F0.97019999999999995
tp1869
sI364168
(F15.006
F1
F0.97019999999999995
tp1870
sI364169
(F1.2347999999999999
F1
F0.97019999999999995
tp1871
sI364170
(F19153
F0.82467000000000001
F0.97019999999999995
tp1872
sI364171
(F19145
F0.13086
F0.97019999999999995
tp1873
sI364172
(F19138
F0.044819999999999999
F0.97019999999999995
tp1874
sI364173
(F944.98000000000002
F0.67481999999999998
F0.97019999999999995
tp1875
sI364174
(F945.55999999999995
F0.24378
F0.97019999999999995
tp1876
sI410221
(F258.31999999999999
F0.36935000000000001
F1
tp1877
sI364176
(F339.67000000000002
F0.59882999999999997
F0.97019999999999995
tp1878
sI364177
(F339.88
F0.29197000000000001
F0.97019999999999995
tp1879
sI364178
(F339.69999999999999
F0.10897999999999999
F0.97019999999999995
tp1880
sI364179
(F72.073999999999998
F0.54830000000000001
F0.97019999999999995
tp1881
sI364180
(F72.111999999999995
F0.31974000000000002
F0.97019999999999995
tp1882
sI410222
(F414
F0.48104999999999998
F1
tp1883
sI364182
(F15.047000000000001
F1
F0.97019999999999995
tp1884
sI364183
(F1.2343
F1
F0.97019999999999995
tp1885
sI364184
(F19155
F0.82462000000000002
F0.97019999999999995
tp1886
sI364185
(F19149
F0.13152
F0.97019999999999995
tp1887
sI364186
(F19150
F0.045100000000000001
F0.97019999999999995
tp1888
sI364187
(F944.97000000000003
F0.67644000000000004
F0.97019999999999995
tp1889
sI364188
(F946.23000000000002
F0.24246999999999999
F0.97019999999999995
tp1890
sI364189
(F945.96000000000004
F0.10391
F0.97019999999999995
tp1891
sI364190
(F339.77999999999997
F0.59872000000000003
F0.97019999999999995
tp1892
sI364191
(F339.68000000000001
F0.28465000000000001
F0.97019999999999995
tp1893
sI364192
(F339.19999999999999
F0.10409
F0.97019999999999995
tp1894
sI364193
(F72.084999999999994
F0.54820999999999998
F0.97019999999999995
tp1895
sI364194
(F71.994
F0.31880999999999998
F0.97019999999999995
tp1896
sI364195
(F71.944999999999993
F0.13597000000000001
F0.97019999999999995
tp1897
sI364196
(F15.052
F1
F0.97019999999999995
tp1898
sI364197
(F1.2341
F1
F0.97019999999999995
tp1899
sI364198
(F2414.0999999999999
F0.96530000000000005
F0.97509999999999997
tp1900
sI364199
(F2414.5999999999999
F0.034375999999999997
F0.97509999999999997
tp1901
sI364200
(F50.347999999999999
F0.89324999999999999
F0.97509999999999997
tp1902
sI364201
(F50.274000000000001
F0.10899
F0.97509999999999997
tp1903
sI364202
(F3.2385000000000002
F0.85348000000000002
F0.97509999999999997
tp1904
sI429739
(F20787
F1
F1
tp1905
sI364204
(F2415.5999999999999
F0.96519999999999995
F0.97509999999999997
tp1906
sI364205
(F2415.0999999999999
F0.034722000000000003
F0.97509999999999997
tp1907
sI364206
(F50.329999999999998
F0.89314000000000004
F0.97509999999999997
tp1908
sI364207
(F50.457999999999998
F0.1087
F0.97509999999999997
tp1909
sI364208
(F3.2544
F0.85472999999999999
F0.97509999999999997
tp1910
sI364209
(F3.2511999999999999
F0.15348999999999999
F0.97509999999999997
tp1911
sI364210
(F2415.3000000000002
F0.96538999999999997
F0.97509999999999997
tp1912
sI364211
(F2414.3000000000002
F0.034653000000000003
F0.97509999999999997
tp1913
sI364212
(F50.408000000000001
F0.89315999999999995
F0.97509999999999997
tp1914
sI364213
(F50.466000000000001
F0.10985
F0.97509999999999997
tp1915
sI364214
(F3.2837000000000001
F0.85492000000000001
F0.97509999999999997
tp1916
sI364215
(F3.2805
F0.15568000000000001
F0.97509999999999997
tp1917
sI364216
(F0.059241000000000002
F1
F1
tp1918
sI364217
(F0.0011854999999999999
F1
F1
tp1919
sI364218
(F0.059179000000000002
F1
F1
tp1920
sI364219
(F0.001188
F1
F1
tp1921
sI364220
(F0.058867999999999997
F1
F1
tp1922
sI364221
(F0.001186
F1
F1
tp1923
sI364222
(F0.30437999999999998
F1
F1
tp1924
sI364223
(F0.0058520000000000004
F1
F1
tp1925
sI364224
(F0.39989999999999998
F1
F1
tp1926
sI364225
(F0.0078890000000000002
F1
F1
tp1927
sI364226
(F0.40062999999999999
F1
F1
tp1928
sI364227
(F0.0077924999999999999
F1
F1
tp1929
sI364228
(F0.40054000000000001
F1
F1
tp1930
sI364229
(F0.0077685000000000002
F1
F1
tp1931
sI364231
(F0.14535999999999999
F1
F1
tp1932
sI364232
(F0.033616
F1
F1
tp1933
sI364233
(F0.0030715
F1
F1
tp1934
sI364235
(F0.14566999999999999
F1
F1
tp1935
sI364236
(F0.033665
F1
F1
tp1936
sI364237
(F0.0030774000000000001
F1
F1
tp1937
sI364242
(F0.0071979000000000001
F1
F1
tp1938
sI364243
(F0.0017966
F1
F1
tp1939
sI364244
(F0.0035466999999999999
F1
F1
tp1940
sI364245
(F0.00018807000000000001
F1
F1
tp1941
sI364246
(F0.001668
F0.44625999999999999
F1
tp1942
sI364247
(F1.4508000000000001e-05
F1
F1
tp1943
sI364248
(F0.00038533000000000003
F0.22453000000000001
F1
tp1944
sI364249
(F0.00038545000000000002
F0.44467000000000001
F1
tp1945
sI364262
(F209.40000000000001
F1
F1
tp1946
sI364263
(F10.881
F1
F1
tp1947
sI364264
(F1.4477
F1
F1
tp1948
sI364265
(F0.33782000000000001
F1
F1
tp1949
sI364266
(F0.1555
F1
F1
tp1950
sI364267
(F0.0054618000000000002
F1
F1
tp1951
sI364271
(F0.0012745
F0.44907999999999998
F1
tp1952
sI364280
(F46.040999999999997
F1
F0.97509999999999997
tp1953
sI364281
(F36.390999999999998
F1
F0.97509999999999997
tp1954
sI364282
(F9.1378000000000004
F1
F1
tp1955
sI364310
(F948.78999999999996
F1
F1
tp1956
sI364311
(F948.38
F1
F1
tp1957
sI364312
(F948.20000000000005
F1
F1
tp1958
sI364336
(F0.0096069999999999992
F0.46810000000000002
F1
tp1959
sI364337
(F0.0053858999999999999
F0.46260000000000001
F1
tp1960
sI364338
(F0.043614
F0.32568000000000003
F1
tp1961
sI364339
(F0.024695000000000002
F0.32915
F1
tp1962
sI344713
(F1901.3
F1
F1
tp1963
sI364345
(F77.748999999999995
F1
F1
tp1964
sI364346
(F161.93000000000001
F1
F1
tp1965
sI364347
(F162
F1
F1
tp1966
sI361100
(F11306
F1
F1.0172399964600001
tp1967
sI361105
(F8282.7000000000007
F1
F1.0357859971500001
tp1968
sI361106
(F1901.0999999999999
F1
F1.0260004733899999
tp1969
sI361107
(F1901.0999999999999
F1
F1.02605444217
tp1970
sI361108
(F1901.0999999999999
F1
F1.02605444217
tp1971
sI361385
(F0.046200999999999999
F0.26919999999999999
F0.99131999999999998
tp1972
sI364413
(F0.47216000000000002
F1
F1
tp1973
sI364414
(F0.069095000000000004
F1
F1
tp1974
sI364415
(F0.0090638999999999997
F1
F1
tp1975
sI364416
(F0.00031760000000000002
F1
F1
tp1976
sI364417
(F1.8926000000000001e-06
F1
F1
tp1977
sI364418
(F0.26214999999999999
F1
F1
tp1978
sI364419
(F0.034876999999999998
F1
F1
tp1979
sI364420
(F0.0042967999999999999
F1
F1
tp1980
sI364421
(F0.0001448
F1
F1
tp1981
sI364422
(F8.9999999999999996e-07
F1
F1
tp1982
sI364458
(F0.046609999999999999
F1
F1
tp1983
sI364459
(F0.046595999999999999
F1
F1
tp1984
sI364460
(F0.0074485999999999997
F1
F1
tp1985
sI364493
(F1984.0999999999999
F1
F1
tp1986
sI364494
(F109.25
F1
F1
tp1987
sI364495
(F39.920999999999999
F1
F1
tp1988
sI364496
(F8.5317000000000007
F1
F1
tp1989
sI364497
(F1.7861
F1
F1
tp1990
sI364498
(F0.14749999999999999
F1
F1
tp1991
sI344772
(F246.053
F0.20378399999999999
F0.97509999999999997
tp1992
sI344774
(F904.322
F0.11681999999999999
F0.97509999999999997
tp1993
sI344775
(F831.33500000000004
F0.14707000000000001
F0.97509999999999997
tp1994
sI344776
(F13.7241
F0.035525599999999997
F0.97509999999999997
tp1995
sI344778
(F50.467300000000002
F0.15742900000000001
F0.97509999999999997
tp1996
sI344779
(F46.3521
F0.20358000000000001
F0.97509999999999997
tp1997
sI344780
(F5.0442600000000004
F0.040382700000000001
F0.97509999999999997
tp1998
sI344781
(F18.549700000000001
F0.20510999999999999
F0.97509999999999997
tp1999
sI344782
(F17.063700000000001
F0.26125999999999999
F0.97509999999999997
tp2000
sI307479
(F8.6019000000000005
F1
F1
tp2001
sI307480
(F2.2524999999999999
F1
F1
tp2002
sI307481
(F0.043095000000000001
F1
F1
tp2003
sI307482
(F0.0012034000000000001
F1
F1
tp2004
sI307483
(F8.6999999999999997e-06
F1
F1
tp2005
sI307484
(F1.9999999999999999e-07
F1
F1
tp2006
sI307485
(F8.5833999999999993
F1
F1
tp2007
sI307486
(F2.2612999999999999
F1
F1
tp2008
sI307487
(F0.043181999999999998
F1
F1
tp2009
sI307488
(F0.0012034000000000001
F1
F1
tp2010
sI307489
(F8.6000000000000007e-06
F1
F1
tp2011
sI307490
(F1.9999999999999999e-07
F1
F1
tp2012
sI307491
(F8.7146000000000008
F1
F1
tp2013
sI307492
(F2.3083
F1
F1
tp2014
sI307493
(F0.043187000000000003
F1
F1
tp2015
sI307494
(F0.0011950999999999999
F1
F1
tp2016
sI307495
(F8.6999999999999997e-06
F1
F1
tp2017
sI307496
(F1.9999999999999999e-07
F1
F1
tp2018
sI307497
(F4.2565
F1
F1
tp2019
sI307498
(F1.1286
F1
F1
tp2020
sI307499
(F0.021403999999999999
F1
F1
tp2021
sI307500
(F0.00060369999999999998
F1
F1
tp2022
sI307501
(F4.3000000000000003e-06
F1
F1
tp2023
sI307502
(F9.9999999999999995e-08
F1
F1
tp2024
sI307522
(F240.86000000000001
F1
F1
tp2025
sI307523
(F20.175999999999998
F1
F1
tp2026
sI307524
(F3.7902999999999998
F1
F1
tp2027
sI307525
(F0.75168000000000001
F1
F1
tp2028
sI307526
(F0.91596
F1
F1
tp2029
sI307527
(F1.0521
F1
F1
tp2030
sI307528
(F0.37339
F1
F1
tp2031
sI307529
(F0.15606999999999999
F1
F1
tp2032
sI307530
(F0.074283000000000002
F1
F1
tp2033
sI307531
(F0.039494000000000001
F1
F1
tp2034
sI307532
(F0.022862
F1
F1
tp2035
sI307533
(F0.014241
F1
F1
tp2036
sI301140
(F32.058999999999997
F1
F1
tp2037
sI362151
(F0.0056804999999999998
F0.56234941486699996
F1.02198313891
tp2038
sI300003
(F4.9939999999999998
F1
F1
tp2039
sI300005
(F2.1526999999999998
F1
F1
tp2040
sI341003
(F1
F1
F1
tp2041
sI308319
(F71498
F1
F1
tp2042
sI308320
(F71305
F1
F1
tp2043
sI308321
(F71282
F1
F1
tp2044
sI308322
(F71497
F1
F1
tp2045
sI308325
(F72396
F1
F1
tp2046
sI308326
(F72075
F1
F1
tp2047
sI361319
(F0.0081197999999999999
F0.23749999999999999
F0.99912999999999996
tp2048
sI341103
(F2226.3000000000002
F0.00054971999999999996
F1
tp2049
sI341104
(F2226.3000000000002
F0.00055433000000000001
F1
tp2050
sI361320
(F0.0080035999999999996
F0.173096
F0.99912999999999996
tp2051
sI341106
(F2226
F0.014184
F1
tp2052
sI308379
(F72630
F1
F1
tp2053
sI308380
(F72614
F1
F1
tp2054
sI308381
(F72689
F1
F1
tp2055
sI308382
(F72738
F1
F1
tp2056
sI361330
(F89.876000000000005
F0.68320000000000003
F0.90824000000000005
tp2057
sI362159
(F0.0056804999999999998
F0.286103030225
F1.02198313891
tp2058
sI362160
(F0.0055364999999999998
F0.188112386588
F1.0054005834599999
tp2059
sI361341
(F0.060923999999999999
F0.1615
F0.99912999999999996
tp2060
sI361342
(F0.0079015999999999999
F0.59789000000000003
F0.99912999999999996
tp2061
sI362161
(F0.0064980000000000003
F0.182135247986
F1.01882044433
tp2062
sI362162
(F0.0055227999999999996
F0.17665837257299999
F1.0502
tp2063
sI361348
(F21397
F0.89149999999999996
F0.90824000000000005
tp2064
sI361349
(F21391
F0.048460000000000003
F0.90824000000000005
tp2065
sI361350
(F21391
F0.059729999999999998
F0.90824000000000005
tp2066
sI361351
(F633.27999999999997
F0.7278
F0.90824000000000005
tp2067
sI361352
(F633.25
F0.17599999999999999
F0.90824000000000005
tp2068
sI362163
(F0.0057948000000000001
F0.16676855167099999
F0.99459386403600003
tp2069
sI361353
(F632.48000000000002
F0.096369999999999997
F0.90824000000000005
tp2070
sI361354
(F90.024000000000001
F0.68320000000000003
F0.90824000000000005
tp2071
sI361355
(F90.159999999999997
F0.20480000000000001
F0.90824000000000005
tp2072
sI410508
(F730.16999999999996
F0.0032242
F1.13913198296
tp2073
sI361357
(F5.7809999999999997
F0.65129999999999999
F0.99912999999999996
tp2074
sI362164
(F0.0079666000000000008
F0.15055972989999999
F0.98587031900099997
tp2075
sI361358
(F5.7576000000000001
F0.221
F0.99912999999999996
tp2076
sI361359
(F5.7404000000000002
F0.13139999999999999
F0.99912999999999996
tp2077
sI361360
(F0.34525
F0.63060000000000005
F0.99912999999999996
tp2078
sI362165
(F0.0047701999999999996
F0.164662317462
F1.03327716933
tp2079
sI361363
(F0.060600000000000001
F0.62319999999999998
F0.99912999999999996
tp2080
sI361364
(F0.060429999999999998
F0.22003500000000001
F0.99912999999999996
tp2081
sI361365
(F0.060617999999999998
F0.155527
F0.99912999999999996
tp2082
sI361366
(F0.0079323999999999992
F0.61140000000000005
F0.99912999999999996
tp2083
sI361367
(F0.0078887999999999996
F0.23749999999999999
F0.99912999999999996
tp2084
sI362166
(F0.0058481999999999996
F0.17359391348200001
F0.98367655037400004
tp2085
sI361368
(F0.0080228000000000001
F0.17597599999999999
F0.99912999999999996
tp2086
sI361369
(F3.3399999999999999e-05
F0.54539899999999997
F0.99912999999999996
tp2087
sI361370
(F3.0499999999999999e-05
F0.24227199999999999
F0.99912999999999996
tp2088
sI361371
(F3.1999999999999999e-05
F0.19603100000000001
F0.99912999999999996
tp2089
sI361372
(F2207
F0.77849999999999997
F0.9012
tp2090
sI362167
(F0.0056804999999999998
F0.17419848703400001
F1.02198313891
tp2091
sI361373
(F2206
F0.14219999999999999
F0.9012
tp2092
sI361374
(F2207.1999999999998
F0.079500000000000001
F0.9012
tp2093
sI361375
(F75.938999999999993
F0.64800000000000002
F0.9012
tp2094
sI361376
(F76.058000000000007
F0.2198
F0.9012
tp2095
sI361377
(F76.027000000000001
F0.13089999999999999
F0.9012
tp2096
sI362168
(F2.3731999999999999e-05
F0.59533280363999996
F1.0054005834599999
tp2097
sI361378
(F11.627000000000001
F0.6139
F0.9012
tp2098
sI361379
(F11.558
F0.24260000000000001
F0.9012
tp2099
sI300500
(F213050
F1
F1
tp2100
sI300501
(F161490
F1
F1
tp2101
sI361380
(F11.619999999999999
F0.14680000000000001
F0.9012
tp2102
sI361381
(F0.76897000000000004
F0.58360000000000001
F0.99131999999999998
tp2103
sI407009
(F696.22000000000003
F0.022921
F1.1949000000000001
tp2104
sI407010
(F696.23000000000002
F0.003204335
F1.1949000000000001
tp2105
sI407011
(F696.23000000000002
F0.00056523399999999996
F1.1949000000000001
tp2106
sI407012
(F696.22000000000003
F0.0092194749999999995
F1.1949000000000001
tp2107
sI361382
(F0.76361999999999997
F0.26319999999999999
F0.99131999999999998
tp2108
sI407018
(F34.009
F0.088461214999999996
F1.054
tp2109
sI407019
(F34.012999999999998
F0.011282481
F1.054
tp2110
sI407020
(F33.988999999999997
F0.088415243000000004
F1.054
tp2111
sI407021
(F33.993000000000002
F0.011259073
F1.054
tp2112
sI407022
(F0.0055431999999999999
F1
F1
tp2113
sI407023
(F0.0056055999999999996
F1
F1
tp2114
sI407024
(F0.0055177999999999998
F1
F1
tp2115
sI407025
(F0.0019024000000000001
F1
F1
tp2116
sI407026
(F0.0019031
F1
F1
tp2117
sI407027
(F0.0018933999999999999
F1
F1
tp2118
sI407028
(F0.0027704000000000001
F1
F1
tp2119
sI407029
(F783.84000000000003
F0.025898999999999998
F1.0610999999999999
tp2120
sI407030
(F783.84000000000003
F0.0039667000000000001
F1.0610999999999999
tp2121
sI407031
(F783.85000000000002
F0.00075363999999999997
F1.0610999999999999
tp2122
sI407032
(F783.83000000000004
F0.0094409999999999997
F1.0610999999999999
tp2123
sI407033
(F611.11000000000001
F0.021582
F1.3611
tp2124
sI407034
(F611.11000000000001
F0.0027271000000000001
F1.3611
tp2125
sI407035
(F611.12
F0.00044275
F1.3611
tp2126
sI407036
(F611.10000000000002
F0.0091229999999999992
F1.3611
tp2127
sI407037
(F696.33000000000004
F0.021027000000000001
F1.1944999999999999
tp2128
sI407038
(F696.33000000000004
F0.0029226
F1.1944999999999999
tp2129
sI407039
(F696.34000000000003
F0.00051462999999999997
F1.1944999999999999
tp2130
sI407040
(F696.32000000000005
F0.0077732000000000001
F1.1944999999999999
tp2131
sI407041
(F696.47000000000003
F0.025507999999999999
F1.1942999999999999
tp2132
sI407042
(F696.47000000000003
F0.0037935999999999998
F1.1942999999999999
tp2133
sI407043
(F696.48000000000002
F0.00070938000000000001
F1.1942999999999999
tp2134
sI407044
(F696.46000000000004
F0.0092449000000000003
F1.1942999999999999
tp2135
sI407045
(F710.80999999999995
F0.00029095999999999999
F1.1701999999999999
tp2136
sI407046
(F710.75999999999999
F0.0023969
F1.1701999999999999
tp2137
sI407047
(F710.82000000000005
F0.024237000000000002
F1.1701999999999999
tp2138
sI407048
(F710.76999999999998
F0.0089215000000000006
F1.1701999999999999
tp2139
sI407049
(F32.393999999999998
F0.060317999999999997
F1.054
tp2140
sI407050
(F34.915999999999997
F0.090663999999999995
F1.0269999999999999
tp2141
sI407051
(F33.409999999999997
F0.085890999999999995
F1.073
tp2142
sI407052
(F32.405000000000001
F0.0071003000000000004
F1.054
tp2143
sI407053
(F34.915999999999997
F0.011859
F1.0269999999999999
tp2144
sI407054
(F33.409999999999997
F0.010725
F1.073
tp2145
sI407055
(F32.365000000000002
F0.060095999999999997
F1.054
tp2146
sI407056
(F34.895000000000003
F0.090560000000000002
F1.0269999999999999
tp2147
sI407057
(F33.390999999999998
F0.085837999999999998
F1.073
tp2148
sI407058
(F32.380000000000003
F0.0070302999999999997
F1.054
tp2149
sI407059
(F34.895000000000003
F0.011789000000000001
F1.0269999999999999
tp2150
sI407060
(F33.392000000000003
F0.010685999999999999
F1.073
tp2151
sI407061
(F34.078000000000003
F0.080651
F1.054
tp2152
sI407062
(F34.079999999999998
F0.010184
F1.054
tp2153
sI407063
(F34.061999999999998
F0.08115
F1.054
tp2154
sI407064
(F34.064
F0.010218
F1.054
tp2155
sI341529
(F0.18840000000000001
F1
F1
tp2156
sI341532
(F0.017255
F1
F1
tp2157
sI341533
(F0.0097020000000000006
F1
F1
tp2158
sI341535
(F0.0033801999999999999
F1
F1
tp2159
sI341536
(F0.0013058
F1
F1
tp2160
sI341537
(F0.00054900000000000001
F1
F1
tp2161
sI341538
(F0.0002396
F1
F1
tp2162
sI341540
(F5.2099999999999999e-05
F1
F1
tp2163
sI361393
(F4.3000000000000003e-06
F0.4874
F0.99131999999999998
tp2164
sI361394
(F4.3000000000000003e-06
F0.30780000000000002
F0.99131999999999998
tp2165
sI407100
(F2015.8
F0.76990999999999998
F1
tp2166
sI407101
(F2015.5
F0.14310999999999999
F1
tp2167
sI407102
(F2015.2
F0.086440000000000003
F1
tp2168
sI407103
(F67.272999999999996
F0.63548000000000004
F1
tp2169
sI407104
(F67.274000000000001
F0.22564999999999999
F1
tp2170
sI407105
(F67.356999999999999
F0.13957
F1
tp2171
sI407106
(F10.669
F0.61395999999999995
F1
tp2172
sI407107
(F10.644
F0.24009
F1
tp2173
sI407108
(F10.641999999999999
F0.14632999999999999
F1
tp2174
sI361398
(F2204.4000000000001
F0.079500000000000001
F0.9012
tp2175
sI407110
(F0.77751999999999999
F0.2581
F1
tp2176
sI407111
(F0.77903
F0.15237000000000001
F1
tp2177
sI407112
(F0.048576000000000001
F0.57372000000000001
F1
tp2178
sI407113
(F0.048758999999999997
F0.27082000000000001
F1
tp2179
sI407114
(F0.048644
F0.15742
F1
tp2180
sI407115
(F0.0087722000000000008
F0.56206
F1
tp2181
sI407116
(F0.0087417999999999992
F0.27800999999999998
F1
tp2182
sI407117
(F0.0087399999999999995
F0.16150999999999999
F1
tp2183
sI407118
(F0.0011849
F0.55364999999999998
F1
tp2184
sI407119
(F0.0011946000000000001
F0.29005999999999998
F1
tp2185
sI407120
(F0.0011871
F0.16661000000000001
F1
tp2186
sI407121
(F2015.4000000000001
F0.76961000000000002
F1
tp2187
sI407122
(F2014.5
F0.14308000000000001
F1
tp2188
sI407123
(F2015.2
F0.086374999999999993
F1
tp2189
sI407124
(F67.328000000000003
F0.63502000000000003
F1
tp2190
sI407125
(F67.337999999999994
F0.22528999999999999
F1
tp2191
sI407126
(F67.322999999999993
F0.13969999999999999
F1
tp2192
sI407127
(F10.654999999999999
F0.61370000000000002
F1
tp2193
sI407128
(F10.651
F0.24245
F1
tp2194
sI407129
(F10.657999999999999
F0.14579
F1
tp2195
sI407130
(F0.77951000000000004
F0.59094000000000002
F1
tp2196
sI407131
(F0.77730999999999995
F0.25831999999999999
F1
tp2197
sI407132
(F0.77937000000000001
F0.15261
F1
tp2198
sI407133
(F0.048751999999999997
F0.57333999999999996
F1
tp2199
sI407134
(F0.048568
F0.27156000000000002
F1
tp2200
sI407135
(F0.048645000000000001
F0.15820000000000001
F1
tp2201
sI407136
(F0.0087842000000000007
F0.56244000000000005
F1
tp2202
sI407137
(F0.0087927999999999999
F0.28069
F1
tp2203
sI407138
(F0.0087889999999999999
F0.15964999999999999
F1
tp2204
sI361403
(F11.661
F0.24260000000000001
F0.9012
tp2205
sI407140
(F0.0011869000000000001
F0.29385
F1
tp2206
sI407141
(F0.0011846999999999999
F0.16499
F1
tp2207
sI407142
(F2015.2
F0.76929999999999998
F1
tp2208
sI407143
(F2015.4000000000001
F0.14315
F1
tp2209
sI407144
(F2015.0999999999999
F0.086443999999999993
F1
tp2210
sI407145
(F67.307000000000002
F0.63582000000000005
F1
tp2211
sI407146
(F67.388000000000005
F0.22572
F1
tp2212
sI407147
(F67.331000000000003
F0.13914000000000001
F1
tp2213
sI407148
(F10.638999999999999
F0.61390999999999996
F1
tp2214
sI407149
(F10.628
F0.24101
F1
tp2215
sI407150
(F10.637
F0.14563000000000001
F1
tp2216
sI407151
(F0.78052999999999995
F0.59108000000000005
F1
tp2217
sI407152
(F0.77827000000000002
F0.25829999999999997
F1
tp2218
sI429672
(F1931.0999999999999
F0.79788000000000003
F1
tp2219
sI407154
(F0.048624000000000001
F0.57311999999999996
F1
tp2220
sI407155
(F0.048541000000000001
F0.27117000000000002
F1
tp2221
sI407156
(F0.048654999999999997
F0.15764
F1
tp2222
sI407157
(F0.0087770999999999995
F0.56616999999999995
F1
tp2223
sI407158
(F0.0087823999999999992
F0.27844999999999998
F1
tp2224
sI429673
(F1929.5999999999999
F0.12338
F1
tp2225
sI407160
(F0.0011815
F0.55432999999999999
F1
tp2226
sI407161
(F0.0011933
F0.29115999999999997
F1
tp2227
sI407162
(F0.0011846999999999999
F0.16696
F1
tp2228
sI407163
(F10919
F0.76941000000000004
F1
tp2229
sI407164
(F10918
F0.14138999999999999
F1
tp2230
sI429674
(F1928.0999999999999
F0.078778000000000001
F1
tp2231
sI407166
(F378.85000000000002
F0.63561000000000001
F1
tp2232
sI407167
(F379.02999999999997
F0.22305
F1
tp2233
sI407168
(F378.98000000000002
F0.14086000000000001
F1
tp2234
sI361408
(F0.046017000000000002
F0.56920000000000004
F0.99131999999999998
tp2235
sI407170
(F60.034999999999997
F0.24009
F1
tp2236
sI429675
(F5.0208000000000004
F0.56538999999999995
F1
tp2237
sI407172
(F4.3501000000000003
F0.59211999999999998
F1
tp2238
sI407173
(F4.3551000000000002
F0.25716
F1
tp2239
sI407174
(F4.3544
F0.15347
F1
tp2240
sI407175
(F0.26868999999999998
F0.57445999999999997
F1
tp2241
sI407176
(F0.26856000000000002
F0.27029999999999998
F1
tp2242
sI429676
(F5.0183
F0.26129999999999998
F1
tp2243
sI407178
(F0.048148000000000003
F0.56223999999999996
F1
tp2244
sI407179
(F0.048058999999999998
F0.28060000000000002
F1
tp2245
sI407180
(F0.048163999999999998
F0.16184000000000001
F1
tp2246
sI407181
(F0.0064279000000000003
F0.55137000000000003
F1
tp2247
sI407182
(F0.0064130000000000003
F0.29078999999999999
F1
tp2248
sI429677
(F5.0178000000000003
F0.1706
F1
tp2249
sI429678
(F0.94179000000000002
F1
F1
tp2250
sI429679
(F2038.4000000000001
F0.79201999999999995
F1
tp2251
sI407200
(F435.44
F0.49447999999999998
F1.8743000000000001
tp2252
sI407201
(F436.63
F0.034424000000000003
F1.8743000000000001
tp2253
sI407202
(F436.48000000000002
F0.011398
F1.8743000000000001
tp2254
sI407203
(F436.48000000000002
F0.0093489000000000003
F1.8743000000000001
tp2255
sI407204
(F436.57999999999998
F0.0037052000000000001
F1.8743000000000001
tp2256
sI429681
(F2040.3
F0.081058000000000005
F1
tp2257
sI429682
(F6.2949000000000002
F0.56545000000000001
F1
tp2258
sI361416
(F0.0010660999999999999
F0.19800899999999999
F0.99131999999999998
tp2259
sI429683
(F6.2674000000000003
F0.26124000000000003
F1
tp2260
sI361417
(F4.0999999999999997e-06
F0.59726100000000004
F0.99131999999999998
tp2261
sI429684
(F6.2887000000000004
F0.17046
F1
tp2262
sI429685
(F1.1644000000000001
F1
F1
tp2263
sI364157
(F19142
F0.13091
F0.97019999999999995
tp2264
sI407309
(F0.034041000000000002
F1
F1
tp2265
sI407310
(F45757
F1
F1
tp2266
sI407311
(F0.0001025
F1
F1
tp2267
sI407312
(F0.00056862999999999998
F1
F1
tp2268
sI407313
(F0.0043651000000000002
F1
F1
tp2269
sI407314
(F0.015772999999999999
F1
F1
tp2270
sI407315
(F0.0058087
F1
F1
tp2271
sI407320
(F0.21546999999999999
F1
F1
tp2272
sI407321
(F0.00026641000000000002
F1
F1
tp2273
sI407322
(F696.21000000000004
F0.0013986000000000001
F1.1942999999999999
tp2274
sI407323
(F696.23000000000002
F0.00031459000000000001
F1.1942999999999999
tp2275
sI407324
(F2.0689299999999999
F1
F1
tp2276
sI407326
(F0.348555
F1
F1
tp2277
sI407328
(F0.096568329999999994
F1
F1
tp2278
sI407330
(F0.042479530000000001
F1
F1
tp2279
sI407332
(F2.1169730000000002
F1
F1
tp2280
sI407334
(F0.36480430000000003
F1
F1
tp2281
sI407342
(F729.76999999999998
F0.00061282999999999997
F1.1397563615899999
tp2282
sI407343
(F729.76999999999998
F0.0035563999999999999
F1.1397563615899999
tp2283
sI407344
(F729.76999999999998
F0.025638999999999999
F1.1397563615899999
tp2284
sI407345
(F729.76999999999998
F0.0080662000000000008
F1.1397563615899999
tp2285
sI407346
(F729.76999999999998
F0.0011192000000000001
F1.1397563615899999
tp2286
sI407347
(F729.76999999999998
F0.00031435000000000002
F1.1397563615899999
tp2287
sI344722
(F28.850000000000001
F1
F1
tp2288
sI304624
(F1.4823
F1
F1
tp2289
sI364175
(F945.37
F0.10341
F0.97019999999999995
tp2290
sI364181
(F72.090999999999994
F0.13705999999999999
F0.97019999999999995
tp2291
sI301000
(F17.477
F1
F1
tp2292
sI301001
(F2.9215
F1
F1
tp2293
sI301002
(F1.0819000000000001
F1
F1
tp2294
sI301003
(F0.19550999999999999
F1
F1
tp2295
sI301004
(F0.037401999999999998
F1
F1
tp2296
sI301005
(F0.010607
F1
F1
tp2297
sI301006
(F0.0042585000000000001
F1
F1
tp2298
sI301007
(F0.0014220000000000001
F1
F1
tp2299
sI301008
(F0.00054525999999999999
F1
F1
tp2300
sI301009
(F0.00022991999999999999
F1
F1
tp2301
sI301010
(F0.00010387000000000001
F1
F1
tp2302
sI301011
(F4.9403000000000001e-05
F1
F1
tp2303
sI301012
(F2.4454e-05
F1
F1
tp2304
sI301013
(F1.2490000000000001e-05
F1
F1
tp2305
sI301014
(F1.0030999999999999e-05
F1
F1
tp2306
sI301015
(F2.9343999999999998e-06
F1
F1
tp2307
sI301016
(F8.9767000000000002e-07
F1
F1
tp2308
sI301017
(F2.8070999999999998e-07
F1
F1
tp2309
sI301018
(F1.2648e-07
F1
F1
tp2310
sI301020
(F17.477
F1
F1
tp2311
sI301021
(F2.9215
F1
F1
tp2312
sI301022
(F1.0819000000000001
F1
F1
tp2313
sI301023
(F0.19550999999999999
F1
F1
tp2314
sI301024
(F0.037401999999999998
F1
F1
tp2315
sI301025
(F0.010607
F1
F1
tp2316
sI301026
(F0.0042585000000000001
F1
F1
tp2317
sI301027
(F0.0014220000000000001
F1
F1
tp2318
sI301028
(F0.00054525999999999999
F1
F1
tp2319
sI301029
(F0.00022991999999999999
F1
F1
tp2320
sI301030
(F0.00010387000000000001
F1
F1
tp2321
sI301031
(F4.9403000000000001e-05
F1
F1
tp2322
sI301032
(F2.4454e-05
F1
F1
tp2323
sI301033
(F1.2489e-05
F1
F1
tp2324
sI301034
(F1.0030999999999999e-05
F1
F1
tp2325
sI301035
(F2.9343e-06
F1
F1
tp2326
sI301036
(F8.9767000000000002e-07
F1
F1
tp2327
sI301037
(F2.8070999999999998e-07
F1
F1
tp2328
sI301038
(F1.2648e-07
F1
F1
tp2329
sI301040
(F17.477
F1
F1
tp2330
sI301041
(F2.9215
F1
F1
tp2331
sI301042
(F1.0819000000000001
F1
F1
tp2332
sI301043
(F0.19550000000000001
F1
F1
tp2333
sI301044
(F0.037402999999999999
F1
F1
tp2334
sI301045
(F0.010607999999999999
F1
F1
tp2335
sI301046
(F0.0042586000000000004
F1
F1
tp2336
sI301047
(F0.0014220000000000001
F1
F1
tp2337
sI301048
(F0.00054525999999999999
F1
F1
tp2338
sI301049
(F0.00022991999999999999
F1
F1
tp2339
sI301050
(F0.00010387000000000001
F1
F1
tp2340
sI301051
(F4.9404000000000003e-05
F1
F1
tp2341
sI301052
(F2.4454999999999999e-05
F1
F1
tp2342
sI301053
(F1.2489e-05
F1
F1
tp2343
sI301054
(F1.0030999999999999e-05
F1
F1
tp2344
sI301055
(F2.9343999999999998e-06
F1
F1
tp2345
sI301056
(F8.9767999999999998e-07
F1
F1
tp2346
sI301057
(F2.8071999999999999e-07
F1
F1
tp2347
sI301058
(F1.2646999999999999e-07
F1
F1
tp2348
sI364203
(F3.2818000000000001
F0.16028999999999999
F0.97509999999999997
tp2349
sI301060
(F32.058999999999997
F1
F1
tp2350
sI301061
(F5.0033000000000003
F1
F1
tp2351
sI301062
(F1.7545999999999999
F1
F1
tp2352
sI301063
(F0.31236999999999998
F1
F1
tp2353
sI301064
(F0.060788000000000002
F1
F1
tp2354
sI301065
(F0.017666000000000001
F1
F1
tp2355
sI301066
(F0.0072889000000000001
F1
F1
tp2356
sI301067
(F0.0025068
F1
F1
tp2357
sI301068
(F0.00098620999999999995
F1
F1
tp2358
sI301069
(F0.00042450000000000002
F1
F1
tp2359
sI301070
(F0.00019462
F1
F1
tp2360
sI301071
(F9.3339999999999997e-05
F1
F1
tp2361
sI301072
(F4.6255999999999999e-05
F1
F1
tp2362
sI301073
(F2.3473e-05
F1
F1
tp2363
sI301074
(F1.8447000000000001e-05
F1
F1
tp2364
sI301075
(F5.0962999999999998e-06
F1
F1
tp2365
sI301076
(F1.4304999999999999e-06
F1
F1
tp2366
sI301077
(F4.0123e-07
F1
F1
tp2367
sI301078
(F1.5342000000000001e-07
F1
F1
tp2368
sI301080
(F22.193999999999999
F1
F1
tp2369
sI301081
(F3.2848999999999999
F1
F1
tp2370
sI301082
(F1.0831
F1
F1
tp2371
sI301083
(F0.1754
F1
F1
tp2372
sI301084
(F0.030979
F1
F1
tp2373
sI301085
(F0.0082862999999999999
F1
F1
tp2374
sI301086
(F0.0031592999999999999
F1
F1
tp2375
sI301087
(F0.0010027
F1
F1
tp2376
sI301088
(F0.00036811999999999999
F1
F1
tp2377
sI301089
(F0.00014946
F1
F1
tp2378
sI301090
(F6.5308000000000006e-05
F1
F1
tp2379
sI301091
(F3.0167000000000001e-05
F1
F1
tp2380
sI301092
(F1.4548e-05
F1
F1
tp2381
sI301093
(F7.2586000000000003e-06
F1
F1
tp2382
sI301094
(F5.6689000000000001e-06
F1
F1
tp2383
sI301095
(F1.5972999999999999e-06
F1
F1
tp2384
sI301096
(F4.7207000000000002e-07
F1
F1
tp2385
sI301097
(F1.4279e-07
F1
F1
tp2386
sI301098
(F6.1619000000000004e-08
F1
F1
tp2387
sI301100
(F32.058999999999997
F1
F1
tp2388
sI301101
(F5.0033000000000003
F1
F1
tp2389
sI301102
(F1.7545999999999999
F1
F1
tp2390
sI301103
(F0.31236999999999998
F1
F1
tp2391
sI301104
(F0.060788000000000002
F1
F1
tp2392
sI301105
(F0.017666000000000001
F1
F1
tp2393
sI301106
(F0.0072887999999999998
F1
F1
tp2394
sI301107
(F0.0025068
F1
F1
tp2395
sI301108
(F0.00098620999999999995
F1
F1
tp2396
sI301109
(F0.00042453
F1
F1
tp2397
sI301110
(F0.00019462
F1
F1
tp2398
sI301111
(F9.3339999999999997e-05
F1
F1
tp2399
sI301112
(F4.6255999999999999e-05
F1
F1
tp2400
sI301113
(F2.3473e-05
F1
F1
tp2401
sI301114
(F1.8447000000000001e-05
F1
F1
tp2402
sI301115
(F5.0962999999999998e-06
F1
F1
tp2403
sI301116
(F1.4304999999999999e-06
F1
F1
tp2404
sI301117
(F4.0124000000000001e-07
F1
F1
tp2405
sI301118
(F1.5342000000000001e-07
F1
F1
tp2406
sI301120
(F22.193999999999999
F1
F1
tp2407
sI301121
(F3.2848999999999999
F1
F1
tp2408
sI301122
(F1.0831
F1
F1
tp2409
sI301123
(F0.1754
F1
F1
tp2410
sI301124
(F0.030979
F1
F1
tp2411
sI301125
(F0.0082862999999999999
F1
F1
tp2412
sI301126
(F0.0031592999999999999
F1
F1
tp2413
sI301127
(F0.0010027
F1
F1
tp2414
sI301128
(F0.00036811999999999999
F1
F1
tp2415
sI301129
(F0.00014946
F1
F1
tp2416
sI301130
(F6.5308000000000006e-05
F1
F1
tp2417
sI301131
(F3.0167000000000001e-05
F1
F1
tp2418
sI301132
(F1.4548e-05
F1
F1
tp2419
sI301133
(F7.2586000000000003e-06
F1
F1
tp2420
sI301134
(F5.6689000000000001e-06
F1
F1
tp2421
sI301135
(F1.5972999999999999e-06
F1
F1
tp2422
sI301136
(F4.7207000000000002e-07
F1
F1
tp2423
sI301137
(F1.4279e-07
F1
F1
tp2424
sI301138
(F6.1619000000000004e-08
F1
F1
tp2425
sI342099
(F0.0069746000000000001
F1
F1
tp2426
sI342100
(F0.0040562000000000003
F1
F1
tp2427
sI301141
(F5.0033000000000003
F1
F1
tp2428
sI301142
(F1.7544999999999999
F1
F1
tp2429
sI301143
(F0.31236999999999998
F1
F1
tp2430
sI301144
(F0.060788000000000002
F1
F1
tp2431
sI301145
(F0.017666000000000001
F1
F1
tp2432
sI301146
(F0.0072887999999999998
F1
F1
tp2433
sI301147
(F0.0025068
F1
F1
tp2434
sI301148
(F0.00098620999999999995
F1
F1
tp2435
sI301149
(F0.00042453
F1
F1
tp2436
sI301150
(F0.00019462
F1
F1
tp2437
sI301151
(F9.3339999999999997e-05
F1
F1
tp2438
sI301152
(F4.6255999999999999e-05
F1
F1
tp2439
sI301153
(F2.3473e-05
F1
F1
tp2440
sI301154
(F1.8447000000000001e-05
F1
F1
tp2441
sI301155
(F5.0962999999999998e-06
F1
F1
tp2442
sI301156
(F1.4304999999999999e-06
F1
F1
tp2443
sI301157
(F4.0124000000000001e-07
F1
F1
tp2444
sI301158
(F1.5342000000000001e-07
F1
F1
tp2445
sI301160
(F22.193999999999999
F1
F1
tp2446
sI301161
(F3.2848999999999999
F1
F1
tp2447
sI301162
(F1.0831
F1
F1
tp2448
sI301163
(F0.1754
F1
F1
tp2449
sI301164
(F0.030979
F1
F1
tp2450
sI301165
(F0.0082862999999999999
F1
F1
tp2451
sI301166
(F0.0031592999999999999
F1
F1
tp2452
sI301167
(F0.0010027
F1
F1
tp2453
sI301168
(F0.00036811999999999999
F1
F1
tp2454
sI301169
(F0.00014946
F1
F1
tp2455
sI301170
(F6.5307000000000003e-05
F1
F1
tp2456
sI301171
(F3.0167000000000001e-05
F1
F1
tp2457
sI301172
(F1.4548e-05
F1
F1
tp2458
sI301173
(F7.2586000000000003e-06
F1
F1
tp2459
sI301174
(F5.6689000000000001e-06
F1
F1
tp2460
sI301175
(F1.5972999999999999e-06
F1
F1
tp2461
sI301176
(F4.7207000000000002e-07
F1
F1
tp2462
sI301177
(F1.4279e-07
F1
F1
tp2463
sI301178
(F6.1619000000000004e-08
F1
F1
tp2464
sI361500
(F1401.5999999999999
F1
F1.232
tp2465
sI361501
(F211.99000000000001
F1
F1.232
tp2466
sI342195
(F666.30999999999995
F0.63241000000000003
F1
tp2467
sI342196
(F4.8598999999999997
F0.68164000000000002
F1
tp2468
sI361506
(F211.99000000000001
F1
F1.232
tp2469
sI361507
(F67.352999999999994
F1
F1.232
tp2470
sI361383
(F0.76417000000000002
F0.15939999999999999
F0.99131999999999998
tp2471
sI361384
(F0.046102999999999998
F0.56920000000000004
F0.99131999999999998
tp2472
sI301528
(F696.25
F0.0047193299999999999
F1.1949000000000001
tp2473
sI301529
(F696.25
F0.001944
F1.1949000000000001
tp2474
sI301530
(F696.23000000000002
F0.00086308000000000001
F1.1949000000000001
tp2475
sI301531
(F696.24000000000001
F0.00051909999999999999
F1.1949000000000001
tp2476
sI301532
(F696.23000000000002
F0.00030918999999999999
F1.1949000000000001
tp2477
sI301535
(F52.722999999999999
F1
F1
tp2478
sI301536
(F52.723999999999997
F1
F1
tp2479
sI301539
(F4.7991000000000001
F1
F1.363
tp2480
sI301540
(F1428.2
F1
F1
tp2481
sI301541
(F13.839
F1
F1
tp2482
sI301542
(F2.3332999999999999
F1
F1
tp2483
sI301543
(F0.86685999999999996
F1
F1
tp2484
sI301544
(F0.15615999999999999
F1
F1
tp2485
sI301545
(F0.029641000000000001
F1
F1
tp2486
sI301546
(F0.0083248000000000003
F1
F1
tp2487
sI301547
(F0.0033088000000000002
F1
F1
tp2488
sI301548
(F0.0010951999999999999
F1
F1
tp2489
sI301549
(F0.00041810000000000003
F1
F1
tp2490
sI301550
(F0.00017611999999999999
F1
F1
tp2491
sI301551
(F7.9900000000000004e-05
F1
F1
tp2492
sI301552
(F3.82e-05
F1
F1
tp2493
sI301553
(F1.9093000000000002e-05
F1
F1
tp2494
sI301554
(F9.8577000000000005e-06
F1
F1
tp2495
sI301555
(F8.1000000000000004e-06
F1
F1
tp2496
sI301556
(F2.4154000000000002e-06
F1
F1
tp2497
sI301557
(F7.9999999999999996e-07
F1
F1
tp2498
sI301558
(F2.4289999999999998e-07
F1
F1
tp2499
sI301559
(F9.9999999999999995e-08
F1
F1
tp2500
sI301560
(F1429.4000000000001
F1
F1
tp2501
sI301561
(F13.843999999999999
F1
F1
tp2502
sI410470
(F729.76999999999998
F0.54381000000000002
F1.1397563615899999
tp2503
sI301563
(F0.86682999999999999
F1
F1
tp2504
sI301564
(F0.15615000000000001
F1
F1
tp2505
sI301565
(F0.02964
F1
F1
tp2506
sI301566
(F0.0083243999999999992
F1
F1
tp2507
sI301567
(F0.0033089999999999999
F1
F1
tp2508
sI301568
(F0.0010953
F1
F1
tp2509
sI301569
(F0.00041810000000000003
F1
F1
tp2510
sI301570
(F0.0001761
F1
F1
tp2511
sI301571
(F7.9800000000000002e-05
F1
F1
tp2512
sI301572
(F3.8235999999999998e-05
F1
F1
tp2513
sI301573
(F1.91e-05
F1
F1
tp2514
sI301574
(F9.9000000000000001e-06
F1
F1
tp2515
sI301575
(F8.1000000000000004e-06
F1
F1
tp2516
sI301576
(F2.4159e-06
F1
F1
tp2517
sI301577
(F7.9999999999999996e-07
F1
F1
tp2518
sI301578
(F2.4274000000000001e-07
F1
F1
tp2519
sI301579
(F1.1664e-07
F1
F1
tp2520
sI342556
(F1.2790999999999999
F0.032548000000000001
F1
tp2521
sI342558
(F5.2586000000000004
F1
F1
tp2522
sI342559
(F0.13774
F1
F1
tp2523
sI361390
(F0.0010415999999999999
F0.54990000000000006
F0.99131999999999998
tp2524
sI410219
(F0.036867999999999998
F1
F1.1200000000000001
tp2525
sI341105
(F2226.9000000000001
F0.014114
F1
tp2526
sI410220
(F0.036514999999999999
F1
F1.1200000000000001
tp2527
sI361392
(F0.0010598999999999999
F0.18609999999999999
F0.99131999999999998
tp2528
sI301887
(F200.75
F1
F1
tp2529
sI301888
(F200.91
F1
F1
tp2530
sI301889
(F200.78
F1
F1
tp2531
sI301890
(F15.329000000000001
F1
F1
tp2532
sI301891
(F1.5282
F1
F1
tp2533
sI301892
(F0.24154999999999999
F1
F1
tp2534
sI301893
(F15.272
F1
F1
tp2535
sI301894
(F1.5235000000000001
F1
F1
tp2536
sI301895
(F0.24182999999999999
F1
F1
tp2537
sI301896
(F15.297000000000001
F1
F1
tp2538
sI301897
(F1.5289999999999999
F1
F1
tp2539
sI301898
(F0.24260000000000001
F1
F1
tp2540
sI301899
(F5.2356999999999996
F1
F1
tp2541
sI301900
(F0.38473000000000002
F1
F1
tp2542
sI301901
(F0.047126000000000001
F1
F1
tp2543
sI301902
(F5.2419000000000002
F1
F1
tp2544
sI301903
(F0.38567000000000001
F1
F1
tp2545
sI301904
(F0.047195000000000001
F1
F1
tp2546
sI301905
(F5.2489999999999997
F1
F1
tp2547
sI301906
(F0.38482
F1
F1
tp2548
sI301907
(F0.047024999999999997
F1
F1
tp2549
sI301908
(F4.0365000000000002
F1
F1
tp2550
sI301909
(F0.97150999999999998
F1
F1
tp2551
sI301910
(F0.17115
F1
F1
tp2552
sI361623
(F0.00021780000000000001
F1
F1
tp2553
sI361628
(F2677.0999999999999
F1
F1.232
tp2554
sI361629
(F44.988
F1
F1.232
tp2555
sI301562
(F2.3332999999999999
F1
F1
tp2556
sI361640
(F28.852
F1
F1.232
tp2557
sI361641
(F6.0513000000000003
F1
F1.232
tp2558
sI425001
(F1900.8
F1
F1
tp2559
sI425002
(F1900.8
F1
F1
tp2560
sI425003
(F1900.7
F1
F1
tp2561
sI425004
(F1900.8
F1
F1
tp2562
sI425005
(F1900.8
F1
F1
tp2563
sI425006
(F1900.5
F1
F1
tp2564
sI425007
(F1900.7
F1
F1
tp2565
sI425008
(F1900.8
F1
F1
tp2566
sI410804
(F14.087999999999999
F1
F1
tp2567
sI410805
(F14.09
F1
F1
tp2568
sI361666
(F13960
F0.054490999999999998
F1
tp2569
sI361667
(F6621.3999999999996
F0.27368999999999999
F1
tp2570
sI343232
(F1.2664
F0.0037098999999999999
F1
tp2571
sI343244
(F0.14687
F1
F1
tp2572
sI343245
(F0.14718000000000001
F1
F1
tp2573
sI343246
(F0.14695
F1
F1
tp2574
sI425200
(F0.0032165000000000002
F1
F1
tp2575
sI343311
(F0.042893000000000001
F1
F1
tp2576
sI343312
(F0.041625000000000002
F1
F1
tp2577
sI343313
(F0.043628
F1
F1
tp2578
sI343314
(F0.015487000000000001
F1
F1
tp2579
sI343315
(F0.015553000000000001
F1
F1
tp2580
sI343316
(F0.015772000000000001
F1
F1
tp2581
sI343317
(F0.015344
F1
F1
tp2582
sI426335
(F1901.0999999999999
F0.0033284999999999999
F1
tp2583
sI429063
(F39.902999999999999
F0.23455000000000001
F1
tp2584
sI343362
(F696.23000000000002
F0.00018958000000000001
F1.1950000000000001
tp2585
sI343391
(F2.673
F1
F1
tp2586
sI343431
(F9.8368000000000006e-10
F1
F1
tp2587
sI343432
(F9.5199999999999997e-05
F1
F1
tp2588
sI343433
(F9.2385999999999995e-10
F1
F1
tp2589
sI343434
(F0.0001003
F1
F1
tp2590
sI302535
(F19.161000000000001
F1
F1
tp2591
sI302536
(F3.0926
F1
F1
tp2592
sI302537
(F1.1234999999999999
F1
F1
tp2593
sI302538
(F0.20061999999999999
F1
F1
tp2594
sI302539
(F0.037232000000000001
F1
F1
tp2595
sI302540
(F0.010446
F1
F1
tp2596
sI302541
(F0.0040654999999999997
F1
F1
tp2597
sI302542
(F0.0013554000000000001
F1
F1
tp2598
sI302543
(F0.00052680000000000001
F1
F1
tp2599
sI302544
(F0.00022029999999999999
F1
F1
tp2600
sI302545
(F0.0001009
F1
F1
tp2601
sI302546
(F4.7500000000000003e-05
F1
F1
tp2602
sI302547
(F2.3e-05
F1
F1
tp2603
sI302548
(F1.1800000000000001e-05
F1
F1
tp2604
sI302549
(F1.42e-05
F1
F1
tp2605
sI302550
(F19.233000000000001
F1
F1
tp2606
sI302551
(F3.1501000000000001
F1
F1
tp2607
sI302552
(F1.1400999999999999
F1
F1
tp2608
sI302553
(F0.19955999999999999
F1
F1
tp2609
sI302554
(F0.037277999999999999
F1
F1
tp2610
sI302555
(F0.010312
F1
F1
tp2611
sI302556
(F0.0039975000000000002
F1
F1
tp2612
sI302557
(F0.0013561999999999999
F1
F1
tp2613
sI302558
(F0.00052369999999999999
F1
F1
tp2614
sI302559
(F0.0002207
F1
F1
tp2615
sI302560
(F9.8599999999999998e-05
F1
F1
tp2616
sI302561
(F4.6999999999999997e-05
F1
F1
tp2617
sI302562
(F2.37e-05
F1
F1
tp2618
sI302563
(F1.1600000000000001e-05
F1
F1
tp2619
sI302564
(F1.38e-05
F1
F1
tp2620
sI343637
(F696.23000000000002
F0.026280999999999999
F1.19466268331
tp2621
sI302777
(F0.92630000000000001
F1
F1
tp2622
sI363129
(F35.883000000000003
F0.67447999999999997
F1.141
tp2623
sI343852
(F22.414000000000001
F0.00044671000000000001
F1
tp2624
sI343853
(F19.888000000000002
F0.0020798000000000001
F1
tp2625
sI343854
(F16.420999999999999
F0.0062113000000000003
F1
tp2626
sI343855
(F1901.3
F1
F1
tp2627
sI302910
(F2.2364999999999999
F1
F1.363
tp2628
sI302911
(F0.063811999999999994
F1
F1.363
tp2629
sI302912
(F0.0023248000000000001
F1
F1.363
tp2630
sI302913
(F2.2200000000000001e-05
F1
F1.363
tp2631
sI302914
(F6.9999999999999997e-07
F1
F1.363
tp2632
sI302915
(F2.0182000000000002e-08
F1
F1.363
tp2633
sI302916
(F8.2348000000000003e-10
F1
F1.363
tp2634
sI302917
(F4.7487000000000004
F1
F1.363
tp2635
sI302918
(F1.8522000000000001
F1
F1.363
tp2636
sI302919
(F0.058171
F1
F1.363
tp2637
sI302920
(F0.0026467999999999999
F1
F1.363
tp2638
sI302921
(F2.3300000000000001e-05
F1
F1.363
tp2639
sI302922
(F5.9999999999999997e-07
F1
F1.363
tp2640
sI302923
(F1.8979999999999999e-08
F1
F1.363
tp2641
sI302924
(F7.9808e-10
F1
F1.363
tp2642
sI362361
(F5.609e-06
F0.54369999999999996
F0.91361999999999999
tp2643
sI343982
(F774.88
F0.0047228000000000001
F1
tp2644
sI343983
(F119.75
F0.033690999999999999
F1
tp2645
sI343984
(F39.799999999999997
F0.15006
F1
tp2646
sI343985
(F11.646000000000001
F0.31674000000000002
F1
tp2647
sI343986
(F5.0296000000000003
F0.52210999999999996
F1
tp2648
sI410535
(F73.004999999999995
F1
F1.301293
tp2649
ss.